
consumer.elf:     file format elf32-littlenios2
consumer.elf
architecture: nios2, flags 0x00000112:
EXEC_P, HAS_SYMS, D_PAGED
start address 0x000201b8

Program Header:
    LOAD off    0x00001000 vaddr 0x00020000 paddr 0x00020000 align 2**12
         filesz 0x00000020 memsz 0x00000020 flags r-x
    LOAD off    0x00001020 vaddr 0x00020020 paddr 0x00020020 align 2**12
         filesz 0x0000d3d0 memsz 0x0000d3d0 flags r-x
    LOAD off    0x0000e3f0 vaddr 0x0002d3f0 paddr 0x0002ee48 align 2**12
         filesz 0x00001a58 memsz 0x00001a58 flags rw-
    LOAD off    0x000108a0 vaddr 0x000308a0 paddr 0x000308a0 align 2**12
         filesz 0x00000000 memsz 0x000002f4 flags rw-

Sections:
Idx Name          Size      VMA       LMA       File off  Algn
  0 .entry        00000020  00020000  00020000  00001000  2**5
                  CONTENTS, ALLOC, LOAD, READONLY, CODE
  1 .exceptions   00000198  00020020  00020020  00001020  2**2
                  CONTENTS, ALLOC, LOAD, READONLY, CODE
  2 .text         0000ce30  000201b8  000201b8  000011b8  2**2
                  CONTENTS, ALLOC, LOAD, READONLY, CODE
  3 .rodata       00000408  0002cfe8  0002cfe8  0000dfe8  2**2
                  CONTENTS, ALLOC, LOAD, READONLY, DATA
  4 .rwdata       00001a58  0002d3f0  0002ee48  0000e3f0  2**2
                  CONTENTS, ALLOC, LOAD, DATA, SMALL_DATA
  5 .bss          000002f4  000308a0  000308a0  000108a0  2**2
                  ALLOC, SMALL_DATA
  6 .comment      00000023  00000000  00000000  0000fe48  2**0
                  CONTENTS, READONLY
  7 .debug_aranges 00000eb0  00000000  00000000  0000fe70  2**3
                  CONTENTS, READONLY, DEBUGGING
  8 .debug_info   00024678  00000000  00000000  00010d20  2**0
                  CONTENTS, READONLY, DEBUGGING
  9 .debug_abbrev 00009dac  00000000  00000000  00035398  2**0
                  CONTENTS, READONLY, DEBUGGING
 10 .debug_line   0000a805  00000000  00000000  0003f144  2**0
                  CONTENTS, READONLY, DEBUGGING
 11 .debug_frame  00001bd4  00000000  00000000  0004994c  2**2
                  CONTENTS, READONLY, DEBUGGING
 12 .debug_str    00003108  00000000  00000000  0004b520  2**0
                  CONTENTS, READONLY, DEBUGGING
 13 .debug_loc    000119e4  00000000  00000000  0004e628  2**0
                  CONTENTS, READONLY, DEBUGGING
 14 .debug_alt_sim_info 00000010  00000000  00000000  0006000c  2**2
                  CONTENTS, READONLY, DEBUGGING
 15 .debug_ranges 00000b80  00000000  00000000  00060020  2**3
                  CONTENTS, READONLY, DEBUGGING
 16 .thread_model 00000003  00000000  00000000  000640bc  2**0
                  CONTENTS, READONLY
 17 .cpu          00000004  00000000  00000000  000640bf  2**0
                  CONTENTS, READONLY
 18 .qsys         00000001  00000000  00000000  000640c3  2**0
                  CONTENTS, READONLY
 19 .simulation_enabled 00000001  00000000  00000000  000640c4  2**0
                  CONTENTS, READONLY
 20 .sysid_hash   00000004  00000000  00000000  000640c5  2**0
                  CONTENTS, READONLY
 21 .sysid_base   00000004  00000000  00000000  000640c9  2**0
                  CONTENTS, READONLY
 22 .sysid_time   00000004  00000000  00000000  000640cd  2**0
                  CONTENTS, READONLY
 23 .stderr_dev   0000000b  00000000  00000000  000640d1  2**0
                  CONTENTS, READONLY
 24 .stdin_dev    0000000b  00000000  00000000  000640dc  2**0
                  CONTENTS, READONLY
 25 .stdout_dev   0000000b  00000000  00000000  000640e7  2**0
                  CONTENTS, READONLY
 26 .sopc_system_name 0000000a  00000000  00000000  000640f2  2**0
                  CONTENTS, READONLY
 27 .quartus_project_dir 00000021  00000000  00000000  000640fc  2**0
                  CONTENTS, READONLY
 28 .sopcinfo     000775d9  00000000  00000000  0006411d  2**0
                  CONTENTS, READONLY
SYMBOL TABLE:
00020000 l    d  .entry	00000000 .entry
00020020 l    d  .exceptions	00000000 .exceptions
000201b8 l    d  .text	00000000 .text
0002cfe8 l    d  .rodata	00000000 .rodata
0002d3f0 l    d  .rwdata	00000000 .rwdata
000308a0 l    d  .bss	00000000 .bss
00000000 l    d  .comment	00000000 .comment
00000000 l    d  .debug_aranges	00000000 .debug_aranges
00000000 l    d  .debug_info	00000000 .debug_info
00000000 l    d  .debug_abbrev	00000000 .debug_abbrev
00000000 l    d  .debug_line	00000000 .debug_line
00000000 l    d  .debug_frame	00000000 .debug_frame
00000000 l    d  .debug_str	00000000 .debug_str
00000000 l    d  .debug_loc	00000000 .debug_loc
00000000 l    d  .debug_alt_sim_info	00000000 .debug_alt_sim_info
00000000 l    d  .debug_ranges	00000000 .debug_ranges
00000000 l    df *ABS*	00000000 ../consumer_bsp//obj/HAL/src/crt0.o
000201f0 l       .text	00000000 alt_after_alt_main
00000000 l    df *ABS*	00000000 alt_exception_entry.o
00020094 l       .exceptions	00000000 alt_exception_unknown
00000000 l    df *ABS*	00000000 alt_irq_handler.c
00000000 l    df *ABS*	00000000 FIFO_1.c
00000000 l    df *ABS*	00000000 consumer.c
00000000 l    df *ABS*	00000000 fp-bit.c
00000000 l    df *ABS*	00000000 fp-bit.c
00000000 l    df *ABS*	00000000 fp-bit.c
00000000 l    df *ABS*	00000000 fp-bit.c
00000000 l    df *ABS*	00000000 fp-bit.c
00000000 l    df *ABS*	00000000 fp-bit.c
00000000 l    df *ABS*	00000000 libgcc2.c
00000000 l    df *ABS*	00000000 libgcc2.c
00000000 l    df *ABS*	00000000 fp-bit.c
00000000 l    df *ABS*	00000000 fp-bit.c
00000000 l    df *ABS*	00000000 fp-bit.c
00000000 l    df *ABS*	00000000 lib2-mul.c
00000000 l    df *ABS*	00000000 libgcc2.c
00000000 l    df *ABS*	00000000 libgcc2.c
00000000 l    df *ABS*	00000000 libgcc2.c
00000000 l    df *ABS*	00000000 exit.c
00000000 l    df *ABS*	00000000 impure.c
0002d3f0 l     O .rwdata	00000400 impure_data
00000000 l    df *ABS*	00000000 printf.c
00000000 l    df *ABS*	00000000 puts.c
00000000 l    df *ABS*	00000000 strlen.c
00000000 l    df *ABS*	00000000 vfprintf.c
00021128 l     F .text	00000034 __sprint_r
0002d212 l     O .rodata	00000010 blanks.3515
0002d222 l     O .rodata	00000010 zeroes.3516
00000000 l    df *ABS*	00000000 wsetup.c
00000000 l    df *ABS*	00000000 __call_atexit.c
00000000 l    df *ABS*	00000000 dtoa.c
00023310 l     F .text	0000023c quorem
00000000 l    df *ABS*	00000000 fflush.c
00000000 l    df *ABS*	00000000 findfp.c
00024d80 l     F .text	00000008 __fp_lock
00024d88 l     F .text	00000008 __fp_unlock
00000000 l    df *ABS*	00000000 mallocr.c
00000000 l    df *ABS*	00000000 fvwrite.c
00000000 l    df *ABS*	00000000 fwalk.c
00000000 l    df *ABS*	00000000 locale.c
0002d254 l     O .rodata	00000030 lconv
00000000 l    df *ABS*	00000000 makebuf.c
00000000 l    df *ABS*	00000000 mallocr.c
00000000 l    df *ABS*	00000000 memchr.c
00000000 l    df *ABS*	00000000 memcpy.c
00000000 l    df *ABS*	00000000 memmove.c
00000000 l    df *ABS*	00000000 memset.c
00000000 l    df *ABS*	00000000 mprec.c
0002d39c l     O .rodata	0000000c p05.2435
00000000 l    df *ABS*	00000000 mallocr.c
00000000 l    df *ABS*	00000000 s_isinfd.c
00000000 l    df *ABS*	00000000 s_isnand.c
00000000 l    df *ABS*	00000000 sbrkr.c
00000000 l    df *ABS*	00000000 stdio.c
00000000 l    df *ABS*	00000000 strcmp.c
00000000 l    df *ABS*	00000000 writer.c
00000000 l    df *ABS*	00000000 mallocr.c
00000000 l    df *ABS*	00000000 closer.c
00000000 l    df *ABS*	00000000 fclose.c
00000000 l    df *ABS*	00000000 fstatr.c
00000000 l    df *ABS*	00000000 int_errno.c
00000000 l    df *ABS*	00000000 isattyr.c
00000000 l    df *ABS*	00000000 lseekr.c
00000000 l    df *ABS*	00000000 readr.c
00000000 l    df *ABS*	00000000 libgcc2.c
00000000 l    df *ABS*	00000000 libgcc2.c
00000000 l    df *ABS*	00000000 fp-bit.c
00029364 l     F .text	00000354 _fpadd_parts
00000000 l    df *ABS*	00000000 fp-bit.c
00000000 l    df *ABS*	00000000 fp-bit.c
00000000 l    df *ABS*	00000000 fp-bit.c
00000000 l    df *ABS*	00000000 fp-bit.c
00000000 l    df *ABS*	00000000 fp-bit.c
00000000 l    df *ABS*	00000000 fp-bit.c
00000000 l    df *ABS*	00000000 fp-bit.c
00000000 l    df *ABS*	00000000 fp-bit.c
00000000 l    df *ABS*	00000000 fp-bit.c
00000000 l    df *ABS*	00000000 fp-bit.c
00000000 l    df *ABS*	00000000 fp-bit.c
00000000 l    df *ABS*	00000000 lib2-divmod.c
0002a0a4 l     F .text	00000074 udivmodsi4
00000000 l    df *ABS*	00000000 fp-bit.c
00000000 l    df *ABS*	00000000 fp-bit.c
00000000 l    df *ABS*	00000000 alt_close.c
0002a3a8 l     F .text	00000050 alt_get_errno
00000000 l    df *ABS*	00000000 alt_dev.c
0002a4c4 l     F .text	0000002c alt_dev_null_write
00000000 l    df *ABS*	00000000 alt_errno.c
00000000 l    df *ABS*	00000000 alt_exit.c
00000000 l    df *ABS*	00000000 alt_fstat.c
0002a52c l     F .text	00000050 alt_get_errno
00000000 l    df *ABS*	00000000 alt_isatty.c
0002a62c l     F .text	00000050 alt_get_errno
00000000 l    df *ABS*	00000000 alt_load.c
0002a720 l     F .text	0000006c alt_load_section
00000000 l    df *ABS*	00000000 alt_lseek.c
0002a80c l     F .text	00000050 alt_get_errno
00000000 l    df *ABS*	00000000 alt_main.c
00000000 l    df *ABS*	00000000 alt_malloc_lock.c
00000000 l    df *ABS*	00000000 alt_read.c
0002a9e8 l     F .text	00000050 alt_get_errno
00000000 l    df *ABS*	00000000 alt_release_fd.c
00000000 l    df *ABS*	00000000 alt_sbrk.c
0002ee38 l     O .rwdata	00000004 heap_end
00000000 l    df *ABS*	00000000 alt_write.c
0002ac5c l     F .text	00000050 alt_get_errno
00000000 l    df *ABS*	00000000 alt_sys_init.c
0002ad9c l     F .text	00000038 alt_dev_reg
0002ddac l     O .rwdata	00001060 jtag_uart_1
00000000 l    df *ABS*	00000000 altera_avalon_fifo_util.c
00000000 l    df *ABS*	00000000 altera_avalon_jtag_uart_fd.c
00000000 l    df *ABS*	00000000 altera_avalon_jtag_uart_init.c
0002b5a0 l     F .text	00000204 altera_avalon_jtag_uart_irq
0002b7a4 l     F .text	000000a4 altera_avalon_jtag_uart_timeout
00000000 l    df *ABS*	00000000 altera_avalon_jtag_uart_ioctl.c
00000000 l    df *ABS*	00000000 altera_avalon_jtag_uart_read.c
00000000 l    df *ABS*	00000000 altera_avalon_jtag_uart_write.c
00000000 l    df *ABS*	00000000 altera_avalon_timer_sc.c
0002bde0 l     F .text	00000074 alt_avalon_timer_sc_irq
00000000 l    df *ABS*	00000000 altera_avalon_timer_ts.c
00000000 l    df *ABS*	00000000 altera_avalon_timer_vars.c
00000000 l    df *ABS*	00000000 alt_alarm_start.c
00000000 l    df *ABS*	00000000 alt_dcache_flush_all.c
00000000 l    df *ABS*	00000000 alt_dev_llist_insert.c
0002c178 l     F .text	00000050 alt_get_errno
00000000 l    df *ABS*	00000000 alt_do_ctors.c
00000000 l    df *ABS*	00000000 alt_do_dtors.c
00000000 l    df *ABS*	00000000 alt_icache_flush_all.c
00000000 l    df *ABS*	00000000 alt_iic.c
00000000 l    df *ABS*	00000000 alt_iic_isr_register.c
00000000 l    df *ABS*	00000000 alt_io_redirect.c
0002c604 l     F .text	000000e0 alt_open_fd
00000000 l    df *ABS*	00000000 alt_irq_vars.c
00000000 l    df *ABS*	00000000 alt_open.c
0002c75c l     F .text	00000050 alt_get_errno
0002c7ac l     F .text	000000f0 alt_file_locked
00000000 l    df *ABS*	00000000 alt_tick.c
00000000 l    df *ABS*	00000000 altera_nios2_qsys_irq.c
00000000 l    df *ABS*	00000000 alt_find_dev.c
00000000 l    df *ABS*	00000000 alt_find_file.c
00000000 l    df *ABS*	00000000 alt_get_fd.c
00000000 l    df *ABS*	00000000 atexit.c
00000000 l    df *ABS*	00000000 memcmp.c
00000000 l    df *ABS*	00000000 __atexit.c
00000000 l    df *ABS*	00000000 
00027840 g     F .text	00000074 _mprec_log10
00027930 g     F .text	00000084 __any_on
000285b0 g     F .text	00000064 _isatty_r
0002d284 g     O .rodata	00000028 __mprec_tinytens
0002a930 g     F .text	00000078 alt_main
00020f20 g     F .text	00000044 __ashldi3
00021004 g     F .text	00000084 _puts_r
00030904 g     O .bss	00000100 alt_irq
00028614 g     F .text	0000006c _lseek_r
0002b10c g     F .text	00000058 altera_avalon_fifo_write_almostfull
0002ee48 g       *ABS*	00000000 __flash_rwdata_start
00029c04 g     F .text	0000005c __eqdf2
00030b94 g       *ABS*	00000000 __alt_heap_start
00020fc8 g     F .text	0000003c printf
00028154 g     F .text	0000005c __sseek
00024e24 g     F .text	0000010c __sinit
00025abc g     F .text	0000009c _setlocale_r
00024d9c g     F .text	00000078 __sfmoreglue
0002a9c8 g     F .text	00000020 __malloc_unlock
00020654 g     F .text	0000013c __divsf3
000308cc g     O .bss	00000004 altera_avalon_timer_ts_freq
000266fc g     F .text	0000018c memmove
0002ae8c g     F .text	00000098 altera_avalon_fifo_init
00024e14 g     F .text	00000010 _cleanup
0002b1bc g     F .text	00000058 altera_avalon_fifo_write_fifo
00026964 g     F .text	000000a8 _Balloc
00029cbc g     F .text	00000064 __gtdf2
00000000  w      *UND*	00000000 __errno
00020000 g     F .entry	0000000c __reset
0002b354 g     F .text	00000028 altera_avalon_fifo_read_backpressure
000202b0 g     F .text	0000005c alt_write_fifo
00020020 g       *ABS*	00000000 __flash_exceptions_start
00028548 g     F .text	00000068 _fstat_r
000308b8 g     O .bss	00000004 errno
000208a8 g     F .text	00000038 __make_dp
000308c0 g     O .bss	00000004 alt_argv
00036e0c g       *ABS*	00000000 _gp
0002030c g     F .text	00000058 alt_read_fifo
0002b058 g     F .text	0000005c altera_avalon_fifo_clear_event
0002dc2c g     O .rwdata	00000180 alt_fd_list
0002cbb0 g     F .text	00000090 alt_find_dev
000265bc g     F .text	00000140 memcpy
00024d90 g     F .text	0000000c _cleanup_r
00029de0 g     F .text	000000d4 __floatsidf
0002c6e4 g     F .text	00000078 alt_io_redirect
00029d84 g     F .text	0000005c __ltdf2
0002cfe8 g       *ABS*	00000000 __DTOR_END__
00021088 g     F .text	00000014 puts
0002779c g     F .text	000000a4 __ratio
0002b9a4 g     F .text	00000218 altera_avalon_jtag_uart_read
00000000  w      *UND*	00000000 malloc
00020f9c g     F .text	0000002c _printf_r
0002a1c4 g     F .text	00000008 __udivsi3
0002a67c g     F .text	000000a4 isatty
0002d2d4 g     O .rodata	000000c8 __mprec_tens
00025b58 g     F .text	0000000c __locale_charset
000308b4 g     O .bss	00000004 __malloc_top_pad
0002ee14 g     O .rwdata	00000004 __mb_cur_max
00025b64 g     F .text	0000000c _localeconv_r
00026d94 g     F .text	0000003c __i2b
00025478 g     F .text	000004e4 __sfvwrite_r
00028014 g     F .text	00000064 _sbrk_r
00020398 g     F .text	0000012c consumer
00028680 g     F .text	0000006c _read_r
0002d7f0 g     O .rwdata	0000000c __lc_ctype
0002ee30 g     O .rwdata	00000004 alt_max_fd
0002a1d4 g     F .text	00000104 __unpack_d
000283f8 g     F .text	0000013c _fclose_r
00024d50 g     F .text	00000030 fflush
000308b0 g     O .bss	00000004 __malloc_max_sbrked_mem
00020790 g     F .text	00000044 __extendsfdf2
000296b8 g     F .text	00000054 __adddf3
00027510 g     F .text	00000148 __b2d
00028d3c g     F .text	00000628 __umoddi3
0002a85c g     F .text	000000d4 lseek
0002ee0c g     O .rwdata	00000004 _global_impure_ptr
000279b4 g     F .text	000005fc _realloc_r
00030b94 g       *ABS*	00000000 __bss_end
0002c514 g     F .text	000000f0 alt_iic_isr_register
0002ca8c g     F .text	00000104 alt_tick
000286ec g     F .text	00000650 __udivdi3
00020000 g       *ABS*	00000000 __alt_mem_onchip_mem_c1
0002d2ac g     O .rodata	00000028 __mprec_bigtens
00026b78 g     F .text	00000104 __s2b
00029f88 g     F .text	0000011c __floatunsidf
000272b0 g     F .text	00000058 __mcmp
0002503c g     F .text	00000018 __fp_lock_all
0002c4c8 g     F .text	0000004c alt_ic_irq_enabled
0002c9f4 g     F .text	00000098 alt_alarm_stop
000308d0 g     O .bss	00000004 alt_irq_active
000200ec g     F .exceptions	000000cc alt_irq_handler
0002dc04 g     O .rwdata	00000028 alt_dev_null
00020bc8 g     F .text	000000c8 __unpack_f
0002c15c g     F .text	0000001c alt_dcache_flush_all
00026c7c g     F .text	00000068 __hi0bits
00029eb4 g     F .text	000000d4 __fixdfsi
0002b0b4 g     F .text	00000058 altera_avalon_fifo_write_ienable
0002ee48 g       *ABS*	00000000 __ram_rwdata_end
0002afc8 g     F .text	0000002c altera_avalon_fifo_read_almostempty
0002ee28 g     O .rwdata	00000008 alt_dev_list
0002acac g     F .text	000000f0 write
0002bff4 g     F .text	00000028 alt_timestamp_freq
0002d3f0 g       *ABS*	00000000 __ram_rodata_end
0002a57c g     F .text	000000b0 fstat
00020edc g     F .text	00000044 __lshrdi3
00027028 g     F .text	0000012c __pow5mult
000308a8 g     O .bss	00000004 __nlocale_changed
0002a1cc g     F .text	00000008 __umodsi3
00030b94 g       *ABS*	00000000 end
00020a9c g     F .text	0000012c __pack_f
0002b4e0 g     F .text	000000c0 altera_avalon_jtag_uart_init
0002aff4 g     F .text	0000003c altera_avalon_fifo_read_event
0002cfe8 g       *ABS*	00000000 __CTOR_LIST__
00040000 g       *ABS*	00000000 __alt_stack_pointer
0002be54 g     F .text	00000088 alt_avalon_timer_sc_init
000209f0 g     F .text	000000ac __clzsi2
0002bbbc g     F .text	00000224 altera_avalon_jtag_uart_write
0002502c g     F .text	00000004 __sfp_lock_acquire
0002b280 g     F .text	0000004c altera_avalon_fifo_read_fifo
000264c4 g     F .text	000000f8 memchr
0002115c g     F .text	00001e7c ___vfprintf_internal_r
000251a8 g     F .text	000002d0 _free_r
00023170 g     F .text	000001a0 __call_exitprocs
000308a4 g     O .bss	00000004 __mlocale_changed
0002ee18 g     O .rwdata	00000004 __malloc_sbrk_base
000201b8 g     F .text	0000003c _start
000308d4 g     O .bss	00000004 _alt_tick_rate
00027154 g     F .text	0000015c __lshift
000308d8 g     O .bss	00000004 _alt_nticks
0002aa38 g     F .text	000000f4 read
0002ae08 g     F .text	00000084 alt_sys_init
0002ceb8 g     F .text	00000130 __register_exitproc
00026dd0 g     F .text	00000258 __multiply
0002b848 g     F .text	00000068 altera_avalon_jtag_uart_close
00020eb4 g     F .text	00000028 __mulsi3
0002d3f0 g       *ABS*	00000000 __ram_rwdata_start
0002cfe8 g       *ABS*	00000000 __ram_rodata_start
000308dc g     O .bss	00000028 __malloc_current_mallinfo
00027658 g     F .text	00000144 __d2b
0002b37c g     F .text	00000060 altera_avalon_jtag_uart_read_fd
0002cd54 g     F .text	000000d4 alt_get_fd
0002a2d8 g     F .text	000000d0 __fpcmp_parts_d
00028394 g     F .text	00000064 _close_r
0002ce3c g     F .text	0000007c memcmp
0002b43c g     F .text	00000050 altera_avalon_jtag_uart_close_fd
00030b94 g       *ABS*	00000000 __alt_stack_base
0002b48c g     F .text	00000054 altera_avalon_jtag_uart_ioctl_fd
00022ffc g     F .text	00000174 __swsetup_r
0002af24 g     F .text	0000003c altera_avalon_fifo_read_status
00029a50 g     F .text	000001b4 __divdf3
00024f30 g     F .text	000000fc __sfp
000278b4 g     F .text	0000007c __copybits
0002d7fc g     O .rwdata	00000408 __malloc_av_
00025038 g     F .text	00000004 __sinit_lock_release
0002976c g     F .text	000002e4 __muldf3
00028078 g     F .text	00000054 __sread
0002d0b8 g     O .rodata	00000010 __thenan_sf
0002b328 g     F .text	0000002c altera_avalon_fifo_read_other_info
0002cc40 g     F .text	00000114 alt_find_file
0002c1c8 g     F .text	000000a0 alt_dev_llist_insert
0002a9a8 g     F .text	00000020 __malloc_lock
0002abac g     F .text	000000b0 sbrk
00024b68 g     F .text	000001e8 _fflush_r
000282c8 g     F .text	000000cc _calloc_r
000308a0 g       *ABS*	00000000 __bss_start
00026888 g     F .text	000000dc memset
00020364 g     F .text	00000034 main
000308c4 g     O .bss	00000004 alt_envp
000308ac g     O .bss	00000004 __malloc_max_total_mem
0002b3dc g     F .text	00000060 altera_avalon_jtag_uart_write_fd
0002b030 g     F .text	00000028 altera_avalon_fifo_read_level
000281b0 g     F .text	00000008 __sclose
00040000 g       *ABS*	00000000 __alt_heap_limit
00028534 g     F .text	00000014 fclose
0002bedc g     F .text	00000088 alt_timestamp_start
00030a04 g     O .bss	00000190 _atexit0
0002354c g     F .text	0000161c _dtoa_r
00025d40 g     F .text	00000784 _malloc_r
0002ee34 g     O .rwdata	00000004 alt_errno
0002595c g     F .text	000000a8 _fwalk
000201f4 g     F .text	00000060 WRITE_FIFO_1
0002a118 g     F .text	00000050 __divsi3
0002d3a8 g     O .rodata	00000014 __thenan_df
0002506c g     F .text	0000013c _malloc_trim_r
0002cfe8 g       *ABS*	00000000 __CTOR_END__
000204c4 g     F .text	00000190 __mulsf3
000281b8 g     F .text	000000a4 strcmp
0002cfe8 g       *ABS*	00000000 __flash_rodata_start
0002cfe8 g       *ABS*	00000000 __DTOR_LIST__
00029c60 g     F .text	0000005c __nedf2
0002add4 g     F .text	00000034 alt_irq_init
0002ab2c g     F .text	00000080 alt_release_fd
0002d0c8 g     O .rodata	00000100 __clz_tab
000308a0 g     O .bss	00000004 _PathLocale
0002ce28 g     F .text	00000014 atexit
0002825c g     F .text	0000006c _write_r
00025b70 g     F .text	0000001c setlocale
0002ee10 g     O .rwdata	00000004 _impure_ptr
000308bc g     O .bss	00000004 alt_argc
000308c8 g     O .bss	00000004 altera_avalon_timer_ts_base
0002c2c4 g     F .text	0000005c _do_dtors
00020020 g       .exceptions	00000000 alt_irq_entry
000274b0 g     F .text	00000060 __ulp
00027fb0 g     F .text	00000038 __isinfd
00025054 g     F .text	00000018 __fp_unlock_all
0002ee20 g     O .rwdata	00000008 alt_fs_list
00020020 g       *ABS*	00000000 __ram_exceptions_start
00025b8c g     F .text	0000000c localeconv
0002bf64 g     F .text	00000090 alt_timestamp
0002b2cc g     F .text	0000005c altera_avalon_fifo_write_other_info
0002c33c g     F .text	00000050 alt_ic_isr_register
0002ee48 g       *ABS*	00000000 _edata
00030b94 g       *ABS*	00000000 _end
000201b8 g       *ABS*	00000000 __ram_exceptions_end
0002b8b0 g     F .text	000000f4 altera_avalon_jtag_uart_ioctl
0002c428 g     F .text	000000a0 alt_ic_irq_disable
000280cc g     F .text	00000088 __swrite
0002ee1c g     O .rwdata	00000004 __malloc_trim_threshold
0002cb90 g     F .text	00000020 altera_nios2_qsys_irq_init
00020f64 g     F .text	00000038 exit
00025a04 g     F .text	000000b8 _fwalk_reent
000207d4 g     F .text	000000d4 __floatunsisf
00027308 g     F .text	000001a8 __mdiff
0002a168 g     F .text	0000005c __modsi3
0002af60 g     F .text	0000003c altera_avalon_fifo_read_ienable
00040000 g       *ABS*	00000000 __alt_data_end
00020020 g     F .exceptions	00000000 alt_exception
00025030 g     F .text	00000004 __sfp_lock_release
00027fe8 g     F .text	0000002c __isnand
0002a4f0 g     F .text	0000003c _exit
0002c01c g     F .text	00000140 alt_alarm_start
000208e0 g     F .text	00000110 __muldi3
0002af9c g     F .text	0000002c altera_avalon_fifo_read_almostfull
00025b98 g     F .text	000001a8 __smakebuf_r
0002109c g     F .text	0000008c strlen
0002c89c g     F .text	00000158 open
0002b214 g     F .text	0000006c altera_avalon_read_fifo
00029d20 g     F .text	00000064 __gedf2
00020254 g     F .text	0000005c READ_FIFO_1
0002c320 g     F .text	0000001c alt_icache_flush_all
0002ee3c g     O .rwdata	00000004 alt_priority_mask
0002c38c g     F .text	0000009c alt_ic_irq_enable
00022fd8 g     F .text	00000024 __vfprintf_internal
0002970c g     F .text	00000060 __subdf3
00026ce4 g     F .text	000000b0 __lo0bits
0002b164 g     F .text	00000058 altera_avalon_fifo_write_almostempty
0002ee40 g     O .rwdata	00000008 alt_alarm_list
0002c268 g     F .text	0000005c _do_ctors
0002a3f8 g     F .text	000000cc close
0002a78c g     F .text	00000080 alt_load
00020c90 g     F .text	00000224 __pack_d
00000000  w      *UND*	00000000 free
00025034 g     F .text	00000004 __sinit_lock_acquire
00026a34 g     F .text	00000144 __multadd
00026a0c g     F .text	00000028 _Bfree



Disassembly of section .entry:

00020000 <__reset>:
 * Jump to the _start entry point in the .text section if reset code
 * is allowed or if optimizing for RTL simulation.
 */
#if defined(ALT_ALLOW_CODE_AT_RESET) || defined(ALT_SIM_OPTIMIZE)
    /* Jump to the _start entry point in the .text section. */
    movhi r1, %hi(_start)
   20000:	004000b4 	movhi	at,2
    ori r1, r1, %lo(_start)
   20004:	08406e14 	ori	at,at,440
    jmp r1
   20008:	0800683a 	jmp	at
	...

Disassembly of section .exceptions:

00020020 <alt_exception>:

#else /* ALT_EXCEPTION_STACK disabled */
        /* 
         * Reserve space on normal stack for registers about to be pushed.
         */
        addi  sp, sp, -76
   20020:	deffed04 	addi	sp,sp,-76
         * documentation for details).
         *
         * Leave a gap in the stack frame at 4(sp) for the muldiv handler to
         * store zero into.
         */
        stw   ra,  0(sp)
   20024:	dfc00015 	stw	ra,0(sp)
        stw   r1,   8(sp)
   20028:	d8400215 	stw	at,8(sp)
        stw   r2,  12(sp)
   2002c:	d8800315 	stw	r2,12(sp)
        stw   r3,  16(sp)
   20030:	d8c00415 	stw	r3,16(sp)
        stw   r4,  20(sp)
   20034:	d9000515 	stw	r4,20(sp)
        stw   r5,  24(sp)
   20038:	d9400615 	stw	r5,24(sp)
        stw   r6,  28(sp)
   2003c:	d9800715 	stw	r6,28(sp)
        stw   r7,  32(sp)
   20040:	d9c00815 	stw	r7,32(sp)
        rdctl r5, estatus   /* Read early to avoid usage stall */
   20044:	000b307a 	rdctl	r5,estatus
        stw   r8,  36(sp)
   20048:	da000915 	stw	r8,36(sp)
        stw   r9,  40(sp)
   2004c:	da400a15 	stw	r9,40(sp)
        stw   r10, 44(sp)
   20050:	da800b15 	stw	r10,44(sp)
        stw   r11, 48(sp)
   20054:	dac00c15 	stw	r11,48(sp)
        stw   r12, 52(sp)
   20058:	db000d15 	stw	r12,52(sp)
        stw   r13, 56(sp)
   2005c:	db400e15 	stw	r13,56(sp)
        stw   r14, 60(sp)
   20060:	db800f15 	stw	r14,60(sp)
        stw   r15, 64(sp)
   20064:	dbc01015 	stw	r15,64(sp)
        /*
         * ea-4 contains the address of the instruction being executed
         * when the exception occured. For interrupt exceptions, we will
         * will be re-issue the isntruction. Store it in 72(sp)
         */
        stw   r5,  68(sp)  /* estatus */
   20068:	d9401115 	stw	r5,68(sp)
        addi  r15, ea, -4  /* instruction that caused exception */
   2006c:	ebffff04 	addi	r15,ea,-4
        stw   r15,  72(sp)
   20070:	dbc01215 	stw	r15,72(sp)
#else
        /*
         * Test to see if the exception was a software exception or caused 
         * by an external interrupt, and vector accordingly.
         */
        rdctl r4, ipending
   20074:	0009313a 	rdctl	r4,ipending
        andi  r2, r5, 1
   20078:	2880004c 	andi	r2,r5,1
        beq   r2, zero, .Lnot_irq
   2007c:	10000326 	beq	r2,zero,2008c <alt_exception+0x6c>
        beq   r4, zero, .Lnot_irq
   20080:	20000226 	beq	r4,zero,2008c <alt_exception+0x6c>
        /*
         * Now that all necessary registers have been preserved, call 
         * alt_irq_handler() to process the interrupts.
         */

        call alt_irq_handler
   20084:	00200ec0 	call	200ec <alt_irq_handler>

        .section .exceptions.irqreturn, "xa"

        br    .Lexception_exit
   20088:	00000306 	br	20098 <alt_exception_unknown+0x4>
         * upon completion, so we write ea (address of instruction *after*
         * the one where the exception occured) into 72(sp). The actual
         * instruction that caused the exception is written in r2, which these
         * handlers will utilize.
         */
        stw   ea,  72(sp)  /* Don't re-issue */
   2008c:	df401215 	stw	ea,72(sp)
        ldw   r2, -4(ea)   /* Instruction that caused exception */
   20090:	e8bfff17 	ldw	r2,-4(ea)

00020094 <alt_exception_unknown>:
#ifdef NIOS2_HAS_DEBUG_STUB
       /*
        *  Either tell the user now (if there is a debugger attached) or go into
        *  the debug monitor which will loop until a debugger is attached.
        */
        break
   20094:	003da03a 	break	0
        /* 
         * Restore the saved registers, so that all general purpose registers 
         * have been restored to their state at the time the interrupt occured.
         */

        ldw   r5,  68(sp)
   20098:	d9401117 	ldw	r5,68(sp)
        ldw   ea,  72(sp)  /* This becomes the PC once eret is executed */
   2009c:	df401217 	ldw	ea,72(sp)
        ldw   ra,   0(sp)
   200a0:	dfc00017 	ldw	ra,0(sp)

        wrctl estatus, r5
   200a4:	2801707a 	wrctl	estatus,r5

        ldw   r1,   8(sp)
   200a8:	d8400217 	ldw	at,8(sp)
        ldw   r2,  12(sp)
   200ac:	d8800317 	ldw	r2,12(sp)
        ldw   r3,  16(sp)
   200b0:	d8c00417 	ldw	r3,16(sp)
        ldw   r4,  20(sp)
   200b4:	d9000517 	ldw	r4,20(sp)
        ldw   r5,  24(sp)
   200b8:	d9400617 	ldw	r5,24(sp)
        ldw   r6,  28(sp)
   200bc:	d9800717 	ldw	r6,28(sp)
        ldw   r7,  32(sp)
   200c0:	d9c00817 	ldw	r7,32(sp)

#if defined(ALT_EXCEPTION_STACK) && defined(ALT_STACK_CHECK)
        ldw   et, %gprel(alt_exception_old_stack_limit)(gp)
#endif

        ldw   r8,  36(sp)
   200c4:	da000917 	ldw	r8,36(sp)
        ldw   r9,  40(sp)
   200c8:	da400a17 	ldw	r9,40(sp)
        ldw   r10, 44(sp)
   200cc:	da800b17 	ldw	r10,44(sp)
        ldw   r11, 48(sp)
   200d0:	dac00c17 	ldw	r11,48(sp)
        ldw   r12, 52(sp)
   200d4:	db000d17 	ldw	r12,52(sp)
        ldw   r13, 56(sp)
   200d8:	db400e17 	ldw	r13,56(sp)
        ldw   r14, 60(sp)
   200dc:	db800f17 	ldw	r14,60(sp)
        ldw   r15, 64(sp)
   200e0:	dbc01017 	ldw	r15,64(sp)
        stw   et, %gprel(alt_stack_limit_value)(gp)
        stw   zero, %gprel(alt_exception_old_stack_limit)(gp)
#endif /* ALT_STACK_CHECK */
        ldw   sp,  76(sp)
#else /* ALT_EXCEPTION_STACK disabled */
        addi  sp, sp, 76
   200e4:	dec01304 	addi	sp,sp,76

        /*
         * Return to the interrupted instruction.
         */

        eret
   200e8:	ef80083a 	eret

000200ec <alt_irq_handler>:
 * instruction is present if the macro ALT_CI_INTERRUPT_VECTOR defined.
 */

void alt_irq_handler (void) __attribute__ ((section (".exceptions")));
void alt_irq_handler (void)
{
   200ec:	defff904 	addi	sp,sp,-28
   200f0:	dfc00615 	stw	ra,24(sp)
   200f4:	df000515 	stw	fp,20(sp)
   200f8:	df000504 	addi	fp,sp,20
  
  /*
   * Notify the operating system that we are at interrupt level.
   */ 
  
  ALT_OS_INT_ENTER();
   200fc:	0001883a 	nop
#ifndef NIOS2_EIC_PRESENT
static ALT_INLINE alt_u32 ALT_ALWAYS_INLINE alt_irq_pending (void)
{
  alt_u32 active;

  NIOS2_READ_IPENDING (active);
   20100:	0005313a 	rdctl	r2,ipending
   20104:	e0bffe15 	stw	r2,-8(fp)

  return active;
   20108:	e0bffe17 	ldw	r2,-8(fp)
   * Consider the case where the high priority interupt is asserted during
   * the interrupt entry sequence for a lower priority interrupt to see why
   * this is the case.
   */

  active = alt_irq_pending ();
   2010c:	e0bffb15 	stw	r2,-20(fp)

  do
  {
    i = 0;
   20110:	e03ffd15 	stw	zero,-12(fp)
    mask = 1;
   20114:	00800044 	movi	r2,1
   20118:	e0bffc15 	stw	r2,-16(fp)
     * called to clear the interrupt condition.
     */

    do
    {
      if (active & mask)
   2011c:	e0fffb17 	ldw	r3,-20(fp)
   20120:	e0bffc17 	ldw	r2,-16(fp)
   20124:	1884703a 	and	r2,r3,r2
   20128:	10001726 	beq	r2,zero,20188 <alt_irq_handler+0x9c>
      { 
#ifdef ALT_ENHANCED_INTERRUPT_API_PRESENT
        alt_irq[i].handler(alt_irq[i].context); 
   2012c:	00c000f4 	movhi	r3,3
   20130:	18c24104 	addi	r3,r3,2308
   20134:	e0bffd17 	ldw	r2,-12(fp)
   20138:	100490fa 	slli	r2,r2,3
   2013c:	1885883a 	add	r2,r3,r2
   20140:	10c00017 	ldw	r3,0(r2)
   20144:	010000f4 	movhi	r4,3
   20148:	21024104 	addi	r4,r4,2308
   2014c:	e0bffd17 	ldw	r2,-12(fp)
   20150:	100490fa 	slli	r2,r2,3
   20154:	2085883a 	add	r2,r4,r2
   20158:	10800104 	addi	r2,r2,4
   2015c:	10800017 	ldw	r2,0(r2)
   20160:	1009883a 	mov	r4,r2
   20164:	183ee83a 	callr	r3
#else
        alt_irq[i].handler(alt_irq[i].context, i); 
#endif
        break;
   20168:	0001883a 	nop
#ifndef NIOS2_EIC_PRESENT
static ALT_INLINE alt_u32 ALT_ALWAYS_INLINE alt_irq_pending (void)
{
  alt_u32 active;

  NIOS2_READ_IPENDING (active);
   2016c:	0005313a 	rdctl	r2,ipending
   20170:	e0bfff15 	stw	r2,-4(fp)

  return active;
   20174:	e0bfff17 	ldw	r2,-4(fp)
      mask <<= 1;
      i++;

    } while (1);

    active = alt_irq_pending ();
   20178:	e0bffb15 	stw	r2,-20(fp)
    
  } while (active);
   2017c:	e0bffb17 	ldw	r2,-20(fp)
   20180:	103fe31e 	bne	r2,zero,20110 <alt_irq_handler+0x24>

  /*
   * Notify the operating system that interrupt processing is complete.
   */ 

  ALT_OS_INT_EXIT();
   20184:	00000706 	br	201a4 <alt_irq_handler+0xb8>
#else
        alt_irq[i].handler(alt_irq[i].context, i); 
#endif
        break;
      }
      mask <<= 1;
   20188:	e0bffc17 	ldw	r2,-16(fp)
   2018c:	1085883a 	add	r2,r2,r2
   20190:	e0bffc15 	stw	r2,-16(fp)
      i++;
   20194:	e0bffd17 	ldw	r2,-12(fp)
   20198:	10800044 	addi	r2,r2,1
   2019c:	e0bffd15 	stw	r2,-12(fp)

    } while (1);
   201a0:	003fde06 	br	2011c <alt_irq_handler+0x30>
  /*
   * Notify the operating system that interrupt processing is complete.
   */ 

  ALT_OS_INT_EXIT();
}
   201a4:	e037883a 	mov	sp,fp
   201a8:	dfc00117 	ldw	ra,4(sp)
   201ac:	df000017 	ldw	fp,0(sp)
   201b0:	dec00204 	addi	sp,sp,8
   201b4:	f800283a 	ret

Disassembly of section .text:

000201b8 <_start>:

    /*
     * Now that the caches are initialized, set up the stack pointer and global pointer.
     * The values provided by the linker are assumed to be correctly aligned.
     */
    movhi sp, %hi(__alt_stack_pointer)
   201b8:	06c00134 	movhi	sp,4
    ori sp, sp, %lo(__alt_stack_pointer)
   201bc:	dec00014 	ori	sp,sp,0
    movhi gp, %hi(_gp)
   201c0:	068000f4 	movhi	gp,3
    ori gp, gp, %lo(_gp)
   201c4:	d69b8314 	ori	gp,gp,28172
 */
#ifndef ALT_SIM_OPTIMIZE
    /* Log that the BSS is about to be cleared. */
    ALT_LOG_PUTS(alt_log_msg_bss)

    movhi r2, %hi(__bss_start)
   201c8:	008000f4 	movhi	r2,3
    ori r2, r2, %lo(__bss_start)
   201cc:	10822814 	ori	r2,r2,2208

    movhi r3, %hi(__bss_end)
   201d0:	00c000f4 	movhi	r3,3
    ori r3, r3, %lo(__bss_end)
   201d4:	18c2e514 	ori	r3,r3,2964

    beq r2, r3, 1f
   201d8:	10c00326 	beq	r2,r3,201e8 <_start+0x30>

0:
    stw zero, (r2)
   201dc:	10000015 	stw	zero,0(r2)
    addi r2, r2, 4
   201e0:	10800104 	addi	r2,r2,4
    bltu r2, r3, 0b
   201e4:	10fffd36 	bltu	r2,r3,201dc <_start+0x24>
     * section aren't defined until alt_load() has been called).
     */
    mov   et, zero
#endif

    call alt_load
   201e8:	002a78c0 	call	2a78c <alt_load>

    /* Log that alt_main is about to be called. */
    ALT_LOG_PUTS(alt_log_msg_alt_main)

    /* Call the C entry point. It should never return. */
    call alt_main
   201ec:	002a9300 	call	2a930 <alt_main>

000201f0 <alt_after_alt_main>:

    /* Wait in infinite loop in case alt_main does return. */
alt_after_alt_main:
    br alt_after_alt_main
   201f0:	003fff06 	br	201f0 <alt_after_alt_main>

000201f4 <WRITE_FIFO_1>:
 */

#include "FIFO_1.h"

void WRITE_FIFO_1(int *buffer)
{
   201f4:	defffd04 	addi	sp,sp,-12
   201f8:	dfc00215 	stw	ra,8(sp)
   201fc:	df000115 	stw	fp,4(sp)
   20200:	df000104 	addi	fp,sp,4
   20204:	e13fff15 	stw	r4,-4(fp)

	// Wait if the fifo is full
	while (altera_avalon_fifo_read_status(CTRL_BASE,1<<0) != 0)
   20208:	0001883a 	nop
   2020c:	01000134 	movhi	r4,4
   20210:	21040004 	addi	r4,r4,4096
   20214:	01400044 	movi	r5,1
   20218:	002af240 	call	2af24 <altera_avalon_fifo_read_status>
   2021c:	103ffb1e 	bne	r2,zero,2020c <WRITE_FIFO_1+0x18>
	{}

	// Write the data to FIFO
	altera_avalon_fifo_write_fifo(MEM_BASE,CTRL_BASE,(int)*buffer);
   20220:	e0bfff17 	ldw	r2,-4(fp)
   20224:	10800017 	ldw	r2,0(r2)
   20228:	01000134 	movhi	r4,4
   2022c:	21041404 	addi	r4,r4,4176
   20230:	01400134 	movhi	r5,4
   20234:	29440004 	addi	r5,r5,4096
   20238:	100d883a 	mov	r6,r2
   2023c:	002b1bc0 	call	2b1bc <altera_avalon_fifo_write_fifo>
}
   20240:	e037883a 	mov	sp,fp
   20244:	dfc00117 	ldw	ra,4(sp)
   20248:	df000017 	ldw	fp,0(sp)
   2024c:	dec00204 	addi	sp,sp,8
   20250:	f800283a 	ret

00020254 <READ_FIFO_1>:

void READ_FIFO_1(int *buffer)
{
   20254:	defffd04 	addi	sp,sp,-12
   20258:	dfc00215 	stw	ra,8(sp)
   2025c:	df000115 	stw	fp,4(sp)
   20260:	df000104 	addi	fp,sp,4
   20264:	e13fff15 	stw	r4,-4(fp)
	// Wait if the fifo is empty
	while (altera_avalon_fifo_read_status(CTRL_BASE,1<<1) != 0)
   20268:	0001883a 	nop
   2026c:	01000134 	movhi	r4,4
   20270:	21040004 	addi	r4,r4,4096
   20274:	01400084 	movi	r5,2
   20278:	002af240 	call	2af24 <altera_avalon_fifo_read_status>
   2027c:	103ffb1e 	bne	r2,zero,2026c <READ_FIFO_1+0x18>
	{}

	// Read the data
	*buffer = altera_avalon_fifo_read_fifo(MEM_BASE,CTRL_BASE);
   20280:	01000134 	movhi	r4,4
   20284:	21041404 	addi	r4,r4,4176
   20288:	01400134 	movhi	r5,4
   2028c:	29440004 	addi	r5,r5,4096
   20290:	002b2800 	call	2b280 <altera_avalon_fifo_read_fifo>
   20294:	e0ffff17 	ldw	r3,-4(fp)
   20298:	18800015 	stw	r2,0(r3)

}
   2029c:	e037883a 	mov	sp,fp
   202a0:	dfc00117 	ldw	ra,4(sp)
   202a4:	df000017 	ldw	fp,0(sp)
   202a8:	dec00204 	addi	sp,sp,8
   202ac:	f800283a 	ret

000202b0 <alt_write_fifo>:

void alt_write_fifo(int data){
   202b0:	defffd04 	addi	sp,sp,-12
   202b4:	dfc00215 	stw	ra,8(sp)
   202b8:	df000115 	stw	fp,4(sp)
   202bc:	df000104 	addi	fp,sp,4
   202c0:	e13fff15 	stw	r4,-4(fp)
	// Wait if the fifo is full
	while (altera_avalon_fifo_read_status(CTRL_BASE,1<<0) != 0)
   202c4:	0001883a 	nop
   202c8:	01000134 	movhi	r4,4
   202cc:	21040004 	addi	r4,r4,4096
   202d0:	01400044 	movi	r5,1
   202d4:	002af240 	call	2af24 <altera_avalon_fifo_read_status>
   202d8:	103ffb1e 	bne	r2,zero,202c8 <alt_write_fifo+0x18>
	{}

	// Write the data to FIFO
	altera_avalon_fifo_write_fifo(MEM_BASE,CTRL_BASE,(int)data);
   202dc:	e0bfff17 	ldw	r2,-4(fp)
   202e0:	01000134 	movhi	r4,4
   202e4:	21041404 	addi	r4,r4,4176
   202e8:	01400134 	movhi	r5,4
   202ec:	29440004 	addi	r5,r5,4096
   202f0:	100d883a 	mov	r6,r2
   202f4:	002b1bc0 	call	2b1bc <altera_avalon_fifo_write_fifo>
}
   202f8:	e037883a 	mov	sp,fp
   202fc:	dfc00117 	ldw	ra,4(sp)
   20300:	df000017 	ldw	fp,0(sp)
   20304:	dec00204 	addi	sp,sp,8
   20308:	f800283a 	ret

0002030c <alt_read_fifo>:

int alt_read_fifo(){
   2030c:	defffd04 	addi	sp,sp,-12
   20310:	dfc00215 	stw	ra,8(sp)
   20314:	df000115 	stw	fp,4(sp)
   20318:	df000104 	addi	fp,sp,4
	// Wait if the fifo is empty
	while (altera_avalon_fifo_read_status(CTRL_BASE,1<<1) != 0)
   2031c:	0001883a 	nop
   20320:	01000134 	movhi	r4,4
   20324:	21040004 	addi	r4,r4,4096
   20328:	01400084 	movi	r5,2
   2032c:	002af240 	call	2af24 <altera_avalon_fifo_read_status>
   20330:	103ffb1e 	bne	r2,zero,20320 <alt_read_fifo+0x14>
	{}

	int data = altera_avalon_fifo_read_fifo(MEM_BASE,CTRL_BASE);
   20334:	01000134 	movhi	r4,4
   20338:	21041404 	addi	r4,r4,4176
   2033c:	01400134 	movhi	r5,4
   20340:	29440004 	addi	r5,r5,4096
   20344:	002b2800 	call	2b280 <altera_avalon_fifo_read_fifo>
   20348:	e0bfff15 	stw	r2,-4(fp)

	// Read the data
	return data;
   2034c:	e0bfff17 	ldw	r2,-4(fp)
}
   20350:	e037883a 	mov	sp,fp
   20354:	dfc00117 	ldw	ra,4(sp)
   20358:	df000017 	ldw	fp,0(sp)
   2035c:	dec00204 	addi	sp,sp,8
   20360:	f800283a 	ret

00020364 <main>:

//void delay(int n);
int consumer();

int main()
{
   20364:	defffe04 	addi	sp,sp,-8
   20368:	dfc00115 	stw	ra,4(sp)
   2036c:	df000015 	stw	fp,0(sp)
   20370:	d839883a 	mov	fp,sp
  if(alt_timestamp_start() < 0) // starts the timestamp timer
   20374:	002bedc0 	call	2bedc <alt_timestamp_start>
   20378:	1000050e 	bge	r2,zero,20390 <main+0x2c>
  {
	printf("Please add the high resolution timer to the timestamp timer setting in the syslib properties page.\n");
   2037c:	010000f4 	movhi	r4,3
   20380:	2133fa04 	addi	r4,r4,-12312
   20384:	00210880 	call	21088 <puts>
	exit(1);
   20388:	01000044 	movi	r4,1
   2038c:	0020f640 	call	20f64 <exit>
  }

	consumer();
   20390:	00203980 	call	20398 <consumer>

	while(1) { }
   20394:	003fff06 	br	20394 <main+0x30>

00020398 <consumer>:

	return 0;
}

int consumer()
{
   20398:	defff704 	addi	sp,sp,-36
   2039c:	dfc00815 	stw	ra,32(sp)
   203a0:	df000715 	stw	fp,28(sp)
   203a4:	dc400615 	stw	r17,24(sp)
   203a8:	dc000515 	stw	r16,20(sp)
   203ac:	df000504 	addi	fp,sp,20

	alt_u32 start_time, stop_time;

	printf("Consumer starting..\n");
   203b0:	010000f4 	movhi	r4,3
   203b4:	21341304 	addi	r4,r4,-12212
   203b8:	00210880 	call	21088 <puts>

//	FIFO_1_INIT(); // Initialize the producer-consumer fifo

	int j = 0;
   203bc:	e03ffd15 	stw	zero,-12(fp)
	int k = (int)'a';
   203c0:	00801844 	movi	r2,97
   203c4:	e0bffe15 	stw	r2,-8(fp)
	int count = 0;
   203c8:	e03ffc15 	stw	zero,-16(fp)


	while(count <= 10)
   203cc:	00000d06 	br	20404 <consumer+0x6c>
	{
		// we ignore the first 100 or so packets because of human error when starting
		if (count == 100) {
   203d0:	e0bffc17 	ldw	r2,-16(fp)
   203d4:	10801918 	cmpnei	r2,r2,100
   203d8:	1000021e 	bne	r2,zero,203e4 <consumer+0x4c>
			start_time = alt_timestamp();
   203dc:	002bf640 	call	2bf64 <alt_timestamp>
   203e0:	e0bffb15 	stw	r2,-20(fp)
		}

		count++;
   203e4:	e0bffc17 	ldw	r2,-16(fp)
   203e8:	10800044 	addi	r2,r2,1
   203ec:	e0bffc15 	stw	r2,-16(fp)
		printf("Consumer succefully received [%d]\n",alt_read_fifo());
   203f0:	002030c0 	call	2030c <alt_read_fifo>
   203f4:	010000f4 	movhi	r4,3
   203f8:	21341804 	addi	r4,r4,-12192
   203fc:	100b883a 	mov	r5,r2
   20400:	0020fc80 	call	20fc8 <printf>
	int j = 0;
	int k = (int)'a';
	int count = 0;


	while(count <= 10)
   20404:	e0bffc17 	ldw	r2,-16(fp)
   20408:	108002d0 	cmplti	r2,r2,11
   2040c:	103ff01e 	bne	r2,zero,203d0 <consumer+0x38>
//			printf("Consumer succefully received [%c]\n",(char)j);
//		else
//			printf("Expected [%d] but got [%d]\n",k,j);
//		k+=1;
	}
	stop_time = alt_timestamp();
   20410:	002bf640 	call	2bf64 <alt_timestamp>
   20414:	e0bfff15 	stw	r2,-4(fp)

	printf("Consumer finished..\n");
   20418:	010000f4 	movhi	r4,3
   2041c:	21342104 	addi	r4,r4,-12156
   20420:	00210880 	call	21088 <puts>

	printf("Consumed %d data in %.2f ms.\n", count-1, 1000*((float)(stop_time-start_time)) /((float)alt_timestamp_freq()));
   20424:	e0bffc17 	ldw	r2,-16(fp)
   20428:	143fffc4 	addi	r16,r2,-1
   2042c:	e0ffff17 	ldw	r3,-4(fp)
   20430:	e0bffb17 	ldw	r2,-20(fp)
   20434:	1885c83a 	sub	r2,r3,r2
   20438:	1009883a 	mov	r4,r2
   2043c:	00207d40 	call	207d4 <__floatunsisf>
   20440:	1007883a 	mov	r3,r2
   20444:	1809883a 	mov	r4,r3
   20448:	01511eb4 	movhi	r5,17530
   2044c:	00204c40 	call	204c4 <__mulsf3>
   20450:	1007883a 	mov	r3,r2
   20454:	1823883a 	mov	r17,r3
   20458:	002bff40 	call	2bff4 <alt_timestamp_freq>
   2045c:	1009883a 	mov	r4,r2
   20460:	00207d40 	call	207d4 <__floatunsisf>
   20464:	1007883a 	mov	r3,r2
   20468:	8809883a 	mov	r4,r17
   2046c:	180b883a 	mov	r5,r3
   20470:	00206540 	call	20654 <__divsf3>
   20474:	1007883a 	mov	r3,r2
   20478:	1805883a 	mov	r2,r3
   2047c:	1009883a 	mov	r4,r2
   20480:	00207900 	call	20790 <__extendsfdf2>
   20484:	100f883a 	mov	r7,r2
   20488:	1811883a 	mov	r8,r3
   2048c:	010000f4 	movhi	r4,3
   20490:	21342604 	addi	r4,r4,-12136
   20494:	800b883a 	mov	r5,r16
   20498:	380d883a 	mov	r6,r7
   2049c:	400f883a 	mov	r7,r8
   204a0:	0020fc80 	call	20fc8 <printf>
	return 0;
   204a4:	0005883a 	mov	r2,zero
}
   204a8:	e037883a 	mov	sp,fp
   204ac:	dfc00317 	ldw	ra,12(sp)
   204b0:	df000217 	ldw	fp,8(sp)
   204b4:	dc400117 	ldw	r17,4(sp)
   204b8:	dc000017 	ldw	r16,0(sp)
   204bc:	dec00404 	addi	sp,sp,16
   204c0:	f800283a 	ret

000204c4 <__mulsf3>:
   204c4:	defff104 	addi	sp,sp,-60
   204c8:	d9000d15 	stw	r4,52(sp)
   204cc:	d9400c15 	stw	r5,48(sp)
   204d0:	d9000d04 	addi	r4,sp,52
   204d4:	d9400804 	addi	r5,sp,32
   204d8:	dfc00e15 	stw	ra,56(sp)
   204dc:	0020bc80 	call	20bc8 <__unpack_f>
   204e0:	d9000c04 	addi	r4,sp,48
   204e4:	d9400404 	addi	r5,sp,16
   204e8:	0020bc80 	call	20bc8 <__unpack_f>
   204ec:	d8c00817 	ldw	r3,32(sp)
   204f0:	00800044 	movi	r2,1
   204f4:	10c00936 	bltu	r2,r3,2051c <__mulsf3+0x58>
   204f8:	d8c00917 	ldw	r3,36(sp)
   204fc:	d8800517 	ldw	r2,20(sp)
   20500:	d9000804 	addi	r4,sp,32
   20504:	1884c03a 	cmpne	r2,r3,r2
   20508:	d8800915 	stw	r2,36(sp)
   2050c:	0020a9c0 	call	20a9c <__pack_f>
   20510:	dfc00e17 	ldw	ra,56(sp)
   20514:	dec00f04 	addi	sp,sp,60
   20518:	f800283a 	ret
   2051c:	d9000417 	ldw	r4,16(sp)
   20520:	11000936 	bltu	r2,r4,20548 <__mulsf3+0x84>
   20524:	d8800517 	ldw	r2,20(sp)
   20528:	d8c00917 	ldw	r3,36(sp)
   2052c:	d9000404 	addi	r4,sp,16
   20530:	1884c03a 	cmpne	r2,r3,r2
   20534:	d8800515 	stw	r2,20(sp)
   20538:	0020a9c0 	call	20a9c <__pack_f>
   2053c:	dfc00e17 	ldw	ra,56(sp)
   20540:	dec00f04 	addi	sp,sp,60
   20544:	f800283a 	ret
   20548:	00800104 	movi	r2,4
   2054c:	1880051e 	bne	r3,r2,20564 <__mulsf3+0xa0>
   20550:	00800084 	movi	r2,2
   20554:	20bfe81e 	bne	r4,r2,204f8 <__mulsf3+0x34>
   20558:	010000f4 	movhi	r4,3
   2055c:	21342e04 	addi	r4,r4,-12104
   20560:	003fea06 	br	2050c <__mulsf3+0x48>
   20564:	2080031e 	bne	r4,r2,20574 <__mulsf3+0xb0>
   20568:	00800084 	movi	r2,2
   2056c:	18bffa26 	beq	r3,r2,20558 <__mulsf3+0x94>
   20570:	003fec06 	br	20524 <__mulsf3+0x60>
   20574:	00800084 	movi	r2,2
   20578:	18bfdf26 	beq	r3,r2,204f8 <__mulsf3+0x34>
   2057c:	20bfe926 	beq	r4,r2,20524 <__mulsf3+0x60>
   20580:	d9000717 	ldw	r4,28(sp)
   20584:	d9800b17 	ldw	r6,44(sp)
   20588:	000b883a 	mov	r5,zero
   2058c:	000f883a 	mov	r7,zero
   20590:	00208e00 	call	208e0 <__muldi3>
   20594:	d9000617 	ldw	r4,24(sp)
   20598:	d9400a17 	ldw	r5,40(sp)
   2059c:	d9c00917 	ldw	r7,36(sp)
   205a0:	290b883a 	add	r5,r5,r4
   205a4:	d9000517 	ldw	r4,20(sp)
   205a8:	29800084 	addi	r6,r5,2
   205ac:	d9800215 	stw	r6,8(sp)
   205b0:	3908c03a 	cmpne	r4,r7,r4
   205b4:	d9000115 	stw	r4,4(sp)
   205b8:	1809883a 	mov	r4,r3
   205bc:	1800070e 	bge	r3,zero,205dc <__mulsf3+0x118>
   205c0:	1900004c 	andi	r4,r3,1
   205c4:	294000c4 	addi	r5,r5,3
   205c8:	20000226 	beq	r4,zero,205d4 <__mulsf3+0x110>
   205cc:	1004d07a 	srli	r2,r2,1
   205d0:	10a00034 	orhi	r2,r2,32768
   205d4:	1808d07a 	srli	r4,r3,1
   205d8:	d9400215 	stw	r5,8(sp)
   205dc:	01900034 	movhi	r6,16384
   205e0:	31bfffc4 	addi	r6,r6,-1
   205e4:	31000c36 	bltu	r6,r4,20618 <__mulsf3+0x154>
   205e8:	d8c00217 	ldw	r3,8(sp)
   205ec:	18ffffc4 	addi	r3,r3,-1
   205f0:	00000306 	br	20600 <__mulsf3+0x13c>
   205f4:	1085883a 	add	r2,r2,r2
   205f8:	18ffffc4 	addi	r3,r3,-1
   205fc:	31000536 	bltu	r6,r4,20614 <__mulsf3+0x150>
   20600:	2109883a 	add	r4,r4,r4
   20604:	180b883a 	mov	r5,r3
   20608:	103ffa0e 	bge	r2,zero,205f4 <__mulsf3+0x130>
   2060c:	21000054 	ori	r4,r4,1
   20610:	003ff806 	br	205f4 <__mulsf3+0x130>
   20614:	d9400215 	stw	r5,8(sp)
   20618:	21401fcc 	andi	r5,r4,127
   2061c:	00c01004 	movi	r3,64
   20620:	28c00526 	beq	r5,r3,20638 <__mulsf3+0x174>
   20624:	008000c4 	movi	r2,3
   20628:	d9000315 	stw	r4,12(sp)
   2062c:	d8800015 	stw	r2,0(sp)
   20630:	d809883a 	mov	r4,sp
   20634:	003fb506 	br	2050c <__mulsf3+0x48>
   20638:	20c0200c 	andi	r3,r4,128
   2063c:	183ff91e 	bne	r3,zero,20624 <__mulsf3+0x160>
   20640:	103ff826 	beq	r2,zero,20624 <__mulsf3+0x160>
   20644:	21001004 	addi	r4,r4,64
   20648:	00bfe004 	movi	r2,-128
   2064c:	2088703a 	and	r4,r4,r2
   20650:	003ff406 	br	20624 <__mulsf3+0x160>

00020654 <__divsf3>:
   20654:	defff504 	addi	sp,sp,-44
   20658:	d9000915 	stw	r4,36(sp)
   2065c:	d9400815 	stw	r5,32(sp)
   20660:	d9000904 	addi	r4,sp,36
   20664:	d9400404 	addi	r5,sp,16
   20668:	dfc00a15 	stw	ra,40(sp)
   2066c:	0020bc80 	call	20bc8 <__unpack_f>
   20670:	d9000804 	addi	r4,sp,32
   20674:	d80b883a 	mov	r5,sp
   20678:	0020bc80 	call	20bc8 <__unpack_f>
   2067c:	d8c00417 	ldw	r3,16(sp)
   20680:	00800044 	movi	r2,1
   20684:	10c00536 	bltu	r2,r3,2069c <__divsf3+0x48>
   20688:	d9000404 	addi	r4,sp,16
   2068c:	0020a9c0 	call	20a9c <__pack_f>
   20690:	dfc00a17 	ldw	ra,40(sp)
   20694:	dec00b04 	addi	sp,sp,44
   20698:	f800283a 	ret
   2069c:	d9000017 	ldw	r4,0(sp)
   206a0:	11000536 	bltu	r2,r4,206b8 <__divsf3+0x64>
   206a4:	d809883a 	mov	r4,sp
   206a8:	0020a9c0 	call	20a9c <__pack_f>
   206ac:	dfc00a17 	ldw	ra,40(sp)
   206b0:	dec00b04 	addi	sp,sp,44
   206b4:	f800283a 	ret
   206b8:	d9800517 	ldw	r6,20(sp)
   206bc:	d9400117 	ldw	r5,4(sp)
   206c0:	00800104 	movi	r2,4
   206c4:	314af03a 	xor	r5,r6,r5
   206c8:	d9400515 	stw	r5,20(sp)
   206cc:	18800226 	beq	r3,r2,206d8 <__divsf3+0x84>
   206d0:	01400084 	movi	r5,2
   206d4:	1940041e 	bne	r3,r5,206e8 <__divsf3+0x94>
   206d8:	193feb1e 	bne	r3,r4,20688 <__divsf3+0x34>
   206dc:	010000f4 	movhi	r4,3
   206e0:	21342e04 	addi	r4,r4,-12104
   206e4:	003fe906 	br	2068c <__divsf3+0x38>
   206e8:	20802226 	beq	r4,r2,20774 <__divsf3+0x120>
   206ec:	21402526 	beq	r4,r5,20784 <__divsf3+0x130>
   206f0:	d9000617 	ldw	r4,24(sp)
   206f4:	d8c00217 	ldw	r3,8(sp)
   206f8:	d8800717 	ldw	r2,28(sp)
   206fc:	d9400317 	ldw	r5,12(sp)
   20700:	20c7c83a 	sub	r3,r4,r3
   20704:	d8c00615 	stw	r3,24(sp)
   20708:	1140032e 	bgeu	r2,r5,20718 <__divsf3+0xc4>
   2070c:	18ffffc4 	addi	r3,r3,-1
   20710:	1085883a 	add	r2,r2,r2
   20714:	d8c00615 	stw	r3,24(sp)
   20718:	00c007c4 	movi	r3,31
   2071c:	01100034 	movhi	r4,16384
   20720:	000d883a 	mov	r6,zero
   20724:	18ffffc4 	addi	r3,r3,-1
   20728:	11400236 	bltu	r2,r5,20734 <__divsf3+0xe0>
   2072c:	310cb03a 	or	r6,r6,r4
   20730:	1145c83a 	sub	r2,r2,r5
   20734:	2008d07a 	srli	r4,r4,1
   20738:	1085883a 	add	r2,r2,r2
   2073c:	183ff91e 	bne	r3,zero,20724 <__divsf3+0xd0>
   20740:	31001fcc 	andi	r4,r6,127
   20744:	00c01004 	movi	r3,64
   20748:	20c00226 	beq	r4,r3,20754 <__divsf3+0x100>
   2074c:	d9800715 	stw	r6,28(sp)
   20750:	003fcd06 	br	20688 <__divsf3+0x34>
   20754:	30c0200c 	andi	r3,r6,128
   20758:	183ffc1e 	bne	r3,zero,2074c <__divsf3+0xf8>
   2075c:	103ffb26 	beq	r2,zero,2074c <__divsf3+0xf8>
   20760:	31801004 	addi	r6,r6,64
   20764:	00bfe004 	movi	r2,-128
   20768:	308c703a 	and	r6,r6,r2
   2076c:	d9800715 	stw	r6,28(sp)
   20770:	003fc506 	br	20688 <__divsf3+0x34>
   20774:	d8000715 	stw	zero,28(sp)
   20778:	d8000615 	stw	zero,24(sp)
   2077c:	d9000404 	addi	r4,sp,16
   20780:	003fc206 	br	2068c <__divsf3+0x38>
   20784:	d8800415 	stw	r2,16(sp)
   20788:	d9000404 	addi	r4,sp,16
   2078c:	003fbf06 	br	2068c <__divsf3+0x38>

00020790 <__extendsfdf2>:
   20790:	defff904 	addi	sp,sp,-28
   20794:	d9000515 	stw	r4,20(sp)
   20798:	d9400104 	addi	r5,sp,4
   2079c:	d9000504 	addi	r4,sp,20
   207a0:	dfc00615 	stw	ra,24(sp)
   207a4:	0020bc80 	call	20bc8 <__unpack_f>
   207a8:	d9c00417 	ldw	r7,16(sp)
   207ac:	d9000117 	ldw	r4,4(sp)
   207b0:	d9400217 	ldw	r5,8(sp)
   207b4:	3804d0ba 	srli	r2,r7,2
   207b8:	d9800317 	ldw	r6,12(sp)
   207bc:	380e97ba 	slli	r7,r7,30
   207c0:	d8800015 	stw	r2,0(sp)
   207c4:	00208a80 	call	208a8 <__make_dp>
   207c8:	dfc00617 	ldw	ra,24(sp)
   207cc:	dec00704 	addi	sp,sp,28
   207d0:	f800283a 	ret

000207d4 <__floatunsisf>:
   207d4:	defffa04 	addi	sp,sp,-24
   207d8:	dc000415 	stw	r16,16(sp)
   207dc:	dfc00515 	stw	ra,20(sp)
   207e0:	d8000115 	stw	zero,4(sp)
   207e4:	2021883a 	mov	r16,r4
   207e8:	20001326 	beq	r4,zero,20838 <__floatunsisf+0x64>
   207ec:	008000c4 	movi	r2,3
   207f0:	d8800015 	stw	r2,0(sp)
   207f4:	00800784 	movi	r2,30
   207f8:	d8800215 	stw	r2,8(sp)
   207fc:	00209f00 	call	209f0 <__clzsi2>
   20800:	10ffffc4 	addi	r3,r2,-1
   20804:	18001416 	blt	r3,zero,20858 <__floatunsisf+0x84>
   20808:	18002526 	beq	r3,zero,208a0 <__floatunsisf+0xcc>
   2080c:	80e0983a 	sll	r16,r16,r3
   20810:	00c007c4 	movi	r3,31
   20814:	1885c83a 	sub	r2,r3,r2
   20818:	dc000315 	stw	r16,12(sp)
   2081c:	d8800215 	stw	r2,8(sp)
   20820:	d809883a 	mov	r4,sp
   20824:	0020a9c0 	call	20a9c <__pack_f>
   20828:	dfc00517 	ldw	ra,20(sp)
   2082c:	dc000417 	ldw	r16,16(sp)
   20830:	dec00604 	addi	sp,sp,24
   20834:	f800283a 	ret
   20838:	00800084 	movi	r2,2
   2083c:	d809883a 	mov	r4,sp
   20840:	d8800015 	stw	r2,0(sp)
   20844:	0020a9c0 	call	20a9c <__pack_f>
   20848:	dfc00517 	ldw	ra,20(sp)
   2084c:	dc000417 	ldw	r16,16(sp)
   20850:	dec00604 	addi	sp,sp,24
   20854:	f800283a 	ret
   20858:	00c7c83a 	sub	r3,zero,r3
   2085c:	01000044 	movi	r4,1
   20860:	20c8983a 	sll	r4,r4,r3
   20864:	80c6d83a 	srl	r3,r16,r3
   20868:	213fffc4 	addi	r4,r4,-1
   2086c:	2420703a 	and	r16,r4,r16
   20870:	8020c03a 	cmpne	r16,r16,zero
   20874:	010007c4 	movi	r4,31
   20878:	80c6b03a 	or	r3,r16,r3
   2087c:	2085c83a 	sub	r2,r4,r2
   20880:	d809883a 	mov	r4,sp
   20884:	d8c00315 	stw	r3,12(sp)
   20888:	d8800215 	stw	r2,8(sp)
   2088c:	0020a9c0 	call	20a9c <__pack_f>
   20890:	dfc00517 	ldw	ra,20(sp)
   20894:	dc000417 	ldw	r16,16(sp)
   20898:	dec00604 	addi	sp,sp,24
   2089c:	f800283a 	ret
   208a0:	dc000315 	stw	r16,12(sp)
   208a4:	003fde06 	br	20820 <__floatunsisf+0x4c>

000208a8 <__make_dp>:
   208a8:	defff904 	addi	sp,sp,-28
   208ac:	d8800717 	ldw	r2,28(sp)
   208b0:	d9000015 	stw	r4,0(sp)
   208b4:	d809883a 	mov	r4,sp
   208b8:	dfc00515 	stw	ra,20(sp)
   208bc:	d9c00615 	stw	r7,24(sp)
   208c0:	d9400115 	stw	r5,4(sp)
   208c4:	d9800215 	stw	r6,8(sp)
   208c8:	d9c00315 	stw	r7,12(sp)
   208cc:	d8800415 	stw	r2,16(sp)
   208d0:	0020c900 	call	20c90 <__pack_d>
   208d4:	dfc00517 	ldw	ra,20(sp)
   208d8:	dec00704 	addi	sp,sp,28
   208dc:	f800283a 	ret

000208e0 <__muldi3>:
   208e0:	defff604 	addi	sp,sp,-40
   208e4:	dd400515 	stw	r21,20(sp)
   208e8:	dd000415 	stw	r20,16(sp)
   208ec:	257fffcc 	andi	r21,r4,65535
   208f0:	353fffcc 	andi	r20,r6,65535
   208f4:	dcc00315 	stw	r19,12(sp)
   208f8:	3026d43a 	srli	r19,r6,16
   208fc:	dd800615 	stw	r22,24(sp)
   20900:	dc800215 	stw	r18,8(sp)
   20904:	dc400115 	stw	r17,4(sp)
   20908:	2024d43a 	srli	r18,r4,16
   2090c:	2023883a 	mov	r17,r4
   20910:	282d883a 	mov	r22,r5
   20914:	a009883a 	mov	r4,r20
   20918:	a80b883a 	mov	r5,r21
   2091c:	dfc00915 	stw	ra,36(sp)
   20920:	df000815 	stw	fp,32(sp)
   20924:	ddc00715 	stw	r23,28(sp)
   20928:	3839883a 	mov	fp,r7
   2092c:	dc000015 	stw	r16,0(sp)
   20930:	3021883a 	mov	r16,r6
   20934:	0020eb40 	call	20eb4 <__mulsi3>
   20938:	a80b883a 	mov	r5,r21
   2093c:	9809883a 	mov	r4,r19
   20940:	102f883a 	mov	r23,r2
   20944:	0020eb40 	call	20eb4 <__mulsi3>
   20948:	a009883a 	mov	r4,r20
   2094c:	900b883a 	mov	r5,r18
   20950:	102b883a 	mov	r21,r2
   20954:	0020eb40 	call	20eb4 <__mulsi3>
   20958:	9809883a 	mov	r4,r19
   2095c:	900b883a 	mov	r5,r18
   20960:	1029883a 	mov	r20,r2
   20964:	0020eb40 	call	20eb4 <__mulsi3>
   20968:	1007883a 	mov	r3,r2
   2096c:	b804d43a 	srli	r2,r23,16
   20970:	a549883a 	add	r4,r20,r21
   20974:	2089883a 	add	r4,r4,r2
   20978:	2500022e 	bgeu	r4,r20,20984 <__muldi3+0xa4>
   2097c:	00800074 	movhi	r2,1
   20980:	1887883a 	add	r3,r3,r2
   20984:	200cd43a 	srli	r6,r4,16
   20988:	2004943a 	slli	r2,r4,16
   2098c:	e00b883a 	mov	r5,fp
   20990:	8809883a 	mov	r4,r17
   20994:	bdffffcc 	andi	r23,r23,65535
   20998:	19a3883a 	add	r17,r3,r6
   2099c:	15ef883a 	add	r23,r2,r23
   209a0:	0020eb40 	call	20eb4 <__mulsi3>
   209a4:	8009883a 	mov	r4,r16
   209a8:	b00b883a 	mov	r5,r22
   209ac:	1025883a 	mov	r18,r2
   209b0:	0020eb40 	call	20eb4 <__mulsi3>
   209b4:	9085883a 	add	r2,r18,r2
   209b8:	1447883a 	add	r3,r2,r17
   209bc:	b805883a 	mov	r2,r23
   209c0:	dfc00917 	ldw	ra,36(sp)
   209c4:	df000817 	ldw	fp,32(sp)
   209c8:	ddc00717 	ldw	r23,28(sp)
   209cc:	dd800617 	ldw	r22,24(sp)
   209d0:	dd400517 	ldw	r21,20(sp)
   209d4:	dd000417 	ldw	r20,16(sp)
   209d8:	dcc00317 	ldw	r19,12(sp)
   209dc:	dc800217 	ldw	r18,8(sp)
   209e0:	dc400117 	ldw	r17,4(sp)
   209e4:	dc000017 	ldw	r16,0(sp)
   209e8:	dec00a04 	addi	sp,sp,40
   209ec:	f800283a 	ret

000209f0 <__clzsi2>:
   209f0:	00bfffd4 	movui	r2,65535
   209f4:	11000b36 	bltu	r2,r4,20a24 <__clzsi2+0x34>
   209f8:	00803fc4 	movi	r2,255
   209fc:	11001e2e 	bgeu	r2,r4,20a78 <__clzsi2+0x88>
   20a00:	00c00204 	movi	r3,8
   20a04:	20c8d83a 	srl	r4,r4,r3
   20a08:	00c000f4 	movhi	r3,3
   20a0c:	18f43204 	addi	r3,r3,-12088
   20a10:	00800604 	movi	r2,24
   20a14:	1909883a 	add	r4,r3,r4
   20a18:	20c00003 	ldbu	r3,0(r4)
   20a1c:	10c5c83a 	sub	r2,r2,r3
   20a20:	f800283a 	ret
   20a24:	00804034 	movhi	r2,256
   20a28:	10bfffc4 	addi	r2,r2,-1
   20a2c:	11000936 	bltu	r2,r4,20a54 <__clzsi2+0x64>
   20a30:	00800404 	movi	r2,16
   20a34:	1007883a 	mov	r3,r2
   20a38:	20c8d83a 	srl	r4,r4,r3
   20a3c:	00c000f4 	movhi	r3,3
   20a40:	18f43204 	addi	r3,r3,-12088
   20a44:	1909883a 	add	r4,r3,r4
   20a48:	20c00003 	ldbu	r3,0(r4)
   20a4c:	10c5c83a 	sub	r2,r2,r3
   20a50:	f800283a 	ret
   20a54:	00c00604 	movi	r3,24
   20a58:	20c8d83a 	srl	r4,r4,r3
   20a5c:	00c000f4 	movhi	r3,3
   20a60:	18f43204 	addi	r3,r3,-12088
   20a64:	00800204 	movi	r2,8
   20a68:	1909883a 	add	r4,r3,r4
   20a6c:	20c00003 	ldbu	r3,0(r4)
   20a70:	10c5c83a 	sub	r2,r2,r3
   20a74:	f800283a 	ret
   20a78:	0007883a 	mov	r3,zero
   20a7c:	20c8d83a 	srl	r4,r4,r3
   20a80:	00c000f4 	movhi	r3,3
   20a84:	18f43204 	addi	r3,r3,-12088
   20a88:	00800804 	movi	r2,32
   20a8c:	1909883a 	add	r4,r3,r4
   20a90:	20c00003 	ldbu	r3,0(r4)
   20a94:	10c5c83a 	sub	r2,r2,r3
   20a98:	f800283a 	ret

00020a9c <__pack_f>:
   20a9c:	21400017 	ldw	r5,0(r4)
   20aa0:	01800044 	movi	r6,1
   20aa4:	20c00317 	ldw	r3,12(r4)
   20aa8:	21c00117 	ldw	r7,4(r4)
   20aac:	3140282e 	bgeu	r6,r5,20b50 <__pack_f+0xb4>
   20ab0:	00800104 	movi	r2,4
   20ab4:	28802326 	beq	r5,r2,20b44 <__pack_f+0xa8>
   20ab8:	00800084 	movi	r2,2
   20abc:	28800f26 	beq	r5,r2,20afc <__pack_f+0x60>
   20ac0:	18000e26 	beq	r3,zero,20afc <__pack_f+0x60>
   20ac4:	21000217 	ldw	r4,8(r4)
   20ac8:	00bfe084 	movi	r2,-126
   20acc:	20802616 	blt	r4,r2,20b68 <__pack_f+0xcc>
   20ad0:	00801fc4 	movi	r2,127
   20ad4:	11001b16 	blt	r2,r4,20b44 <__pack_f+0xa8>
   20ad8:	188a703a 	and	r5,r3,r2
   20adc:	00801004 	movi	r2,64
   20ae0:	28801126 	beq	r5,r2,20b28 <__pack_f+0x8c>
   20ae4:	18c00fc4 	addi	r3,r3,63
   20ae8:	18001316 	blt	r3,zero,20b38 <__pack_f+0x9c>
   20aec:	21001fc4 	addi	r4,r4,127
   20af0:	180690ba 	slli	r3,r3,2
   20af4:	1806d27a 	srli	r3,r3,9
   20af8:	00000206 	br	20b04 <__pack_f+0x68>
   20afc:	0009883a 	mov	r4,zero
   20b00:	0007883a 	mov	r3,zero
   20b04:	21003fcc 	andi	r4,r4,255
   20b08:	200895fa 	slli	r4,r4,23
   20b0c:	380a97fa 	slli	r5,r7,31
   20b10:	00802034 	movhi	r2,128
   20b14:	10bfffc4 	addi	r2,r2,-1
   20b18:	1886703a 	and	r3,r3,r2
   20b1c:	1904b03a 	or	r2,r3,r4
   20b20:	1144b03a 	or	r2,r2,r5
   20b24:	f800283a 	ret
   20b28:	1880200c 	andi	r2,r3,128
   20b2c:	103fee26 	beq	r2,zero,20ae8 <__pack_f+0x4c>
   20b30:	18c01004 	addi	r3,r3,64
   20b34:	183fed0e 	bge	r3,zero,20aec <__pack_f+0x50>
   20b38:	1806d07a 	srli	r3,r3,1
   20b3c:	21002004 	addi	r4,r4,128
   20b40:	003feb06 	br	20af0 <__pack_f+0x54>
   20b44:	013fffc4 	movi	r4,-1
   20b48:	0007883a 	mov	r3,zero
   20b4c:	003fed06 	br	20b04 <__pack_f+0x68>
   20b50:	18c00434 	orhi	r3,r3,16
   20b54:	00802034 	movhi	r2,128
   20b58:	10bfffc4 	addi	r2,r2,-1
   20b5c:	1886703a 	and	r3,r3,r2
   20b60:	013fffc4 	movi	r4,-1
   20b64:	003fe706 	br	20b04 <__pack_f+0x68>
   20b68:	1105c83a 	sub	r2,r2,r4
   20b6c:	01000644 	movi	r4,25
   20b70:	20801216 	blt	r4,r2,20bbc <__pack_f+0x120>
   20b74:	3088983a 	sll	r4,r6,r2
   20b78:	1884d83a 	srl	r2,r3,r2
   20b7c:	213fffc4 	addi	r4,r4,-1
   20b80:	20c6703a 	and	r3,r4,r3
   20b84:	1806c03a 	cmpne	r3,r3,zero
   20b88:	1884b03a 	or	r2,r3,r2
   20b8c:	11001fcc 	andi	r4,r2,127
   20b90:	00c01004 	movi	r3,64
   20b94:	20c00a1e 	bne	r4,r3,20bc0 <__pack_f+0x124>
   20b98:	10c0200c 	andi	r3,r2,128
   20b9c:	18000126 	beq	r3,zero,20ba4 <__pack_f+0x108>
   20ba0:	10801004 	addi	r2,r2,64
   20ba4:	100690ba 	slli	r3,r2,2
   20ba8:	01100034 	movhi	r4,16384
   20bac:	1105403a 	cmpgeu	r2,r2,r4
   20bb0:	1806d27a 	srli	r3,r3,9
   20bb4:	1009883a 	mov	r4,r2
   20bb8:	003fd206 	br	20b04 <__pack_f+0x68>
   20bbc:	0005883a 	mov	r2,zero
   20bc0:	10800fc4 	addi	r2,r2,63
   20bc4:	003ff706 	br	20ba4 <__pack_f+0x108>

00020bc8 <__unpack_f>:
   20bc8:	20c00017 	ldw	r3,0(r4)
   20bcc:	00802034 	movhi	r2,128
   20bd0:	10bfffc4 	addi	r2,r2,-1
   20bd4:	1808d5fa 	srli	r4,r3,23
   20bd8:	180cd7fa 	srli	r6,r3,31
   20bdc:	1884703a 	and	r2,r3,r2
   20be0:	21003fcc 	andi	r4,r4,255
   20be4:	29800115 	stw	r6,4(r5)
   20be8:	2000111e 	bne	r4,zero,20c30 <__unpack_f+0x68>
   20bec:	10001a26 	beq	r2,zero,20c58 <__unpack_f+0x90>
   20bf0:	00ffe084 	movi	r3,-126
   20bf4:	100491fa 	slli	r2,r2,7
   20bf8:	28c00215 	stw	r3,8(r5)
   20bfc:	00c000c4 	movi	r3,3
   20c00:	28c00015 	stw	r3,0(r5)
   20c04:	01900034 	movhi	r6,16384
   20c08:	31bfffc4 	addi	r6,r6,-1
   20c0c:	30801036 	bltu	r6,r2,20c50 <__unpack_f+0x88>
   20c10:	00ffe044 	movi	r3,-127
   20c14:	1085883a 	add	r2,r2,r2
   20c18:	1809883a 	mov	r4,r3
   20c1c:	18ffffc4 	addi	r3,r3,-1
   20c20:	30bffc2e 	bgeu	r6,r2,20c14 <__unpack_f+0x4c>
   20c24:	29000215 	stw	r4,8(r5)
   20c28:	28800315 	stw	r2,12(r5)
   20c2c:	f800283a 	ret
   20c30:	01803fc4 	movi	r6,255
   20c34:	21800b26 	beq	r4,r6,20c64 <__unpack_f+0x9c>
   20c38:	100491fa 	slli	r2,r2,7
   20c3c:	213fe044 	addi	r4,r4,-127
   20c40:	00c000c4 	movi	r3,3
   20c44:	10900034 	orhi	r2,r2,16384
   20c48:	29000215 	stw	r4,8(r5)
   20c4c:	28c00015 	stw	r3,0(r5)
   20c50:	28800315 	stw	r2,12(r5)
   20c54:	f800283a 	ret
   20c58:	00800084 	movi	r2,2
   20c5c:	28800015 	stw	r2,0(r5)
   20c60:	f800283a 	ret
   20c64:	10000526 	beq	r2,zero,20c7c <__unpack_f+0xb4>
   20c68:	18c0042c 	andhi	r3,r3,16
   20c6c:	18000626 	beq	r3,zero,20c88 <__unpack_f+0xc0>
   20c70:	00c00044 	movi	r3,1
   20c74:	28c00015 	stw	r3,0(r5)
   20c78:	003ff506 	br	20c50 <__unpack_f+0x88>
   20c7c:	00800104 	movi	r2,4
   20c80:	28800015 	stw	r2,0(r5)
   20c84:	f800283a 	ret
   20c88:	28000015 	stw	zero,0(r5)
   20c8c:	003ff006 	br	20c50 <__unpack_f+0x88>

00020c90 <__pack_d>:
   20c90:	20800017 	ldw	r2,0(r4)
   20c94:	defff804 	addi	sp,sp,-32
   20c98:	dcc00315 	stw	r19,12(sp)
   20c9c:	dc800215 	stw	r18,8(sp)
   20ca0:	dfc00715 	stw	ra,28(sp)
   20ca4:	dd800615 	stw	r22,24(sp)
   20ca8:	dd400515 	stw	r21,20(sp)
   20cac:	dd000415 	stw	r20,16(sp)
   20cb0:	dc400115 	stw	r17,4(sp)
   20cb4:	dc000015 	stw	r16,0(sp)
   20cb8:	04800044 	movi	r18,1
   20cbc:	24400317 	ldw	r17,12(r4)
   20cc0:	24000417 	ldw	r16,16(r4)
   20cc4:	24c00117 	ldw	r19,4(r4)
   20cc8:	9080422e 	bgeu	r18,r2,20dd4 <__pack_d+0x144>
   20ccc:	00c00104 	movi	r3,4
   20cd0:	10c03c26 	beq	r2,r3,20dc4 <__pack_d+0x134>
   20cd4:	00c00084 	movi	r3,2
   20cd8:	10c01926 	beq	r2,r3,20d40 <__pack_d+0xb0>
   20cdc:	8c04b03a 	or	r2,r17,r16
   20ce0:	10001726 	beq	r2,zero,20d40 <__pack_d+0xb0>
   20ce4:	21000217 	ldw	r4,8(r4)
   20ce8:	00bf0084 	movi	r2,-1022
   20cec:	20804016 	blt	r4,r2,20df0 <__pack_d+0x160>
   20cf0:	0080ffc4 	movi	r2,1023
   20cf4:	11003316 	blt	r2,r4,20dc4 <__pack_d+0x134>
   20cf8:	88803fcc 	andi	r2,r17,255
   20cfc:	00c02004 	movi	r3,128
   20d00:	10c02926 	beq	r2,r3,20da8 <__pack_d+0x118>
   20d04:	88801fc4 	addi	r2,r17,127
   20d08:	1463803a 	cmpltu	r17,r2,r17
   20d0c:	8c21883a 	add	r16,r17,r16
   20d10:	1023883a 	mov	r17,r2
   20d14:	00880034 	movhi	r2,8192
   20d18:	10bfffc4 	addi	r2,r2,-1
   20d1c:	14001c36 	bltu	r2,r16,20d90 <__pack_d+0x100>
   20d20:	2100ffc4 	addi	r4,r4,1023
   20d24:	8006963a 	slli	r3,r16,24
   20d28:	8804d23a 	srli	r2,r17,8
   20d2c:	8020913a 	slli	r16,r16,4
   20d30:	2101ffcc 	andi	r4,r4,2047
   20d34:	1884b03a 	or	r2,r3,r2
   20d38:	8020d33a 	srli	r16,r16,12
   20d3c:	00000306 	br	20d4c <__pack_d+0xbc>
   20d40:	0009883a 	mov	r4,zero
   20d44:	0005883a 	mov	r2,zero
   20d48:	0021883a 	mov	r16,zero
   20d4c:	2008953a 	slli	r4,r4,20
   20d50:	982697fa 	slli	r19,r19,31
   20d54:	00c00434 	movhi	r3,16
   20d58:	18ffffc4 	addi	r3,r3,-1
   20d5c:	80e0703a 	and	r16,r16,r3
   20d60:	8106b03a 	or	r3,r16,r4
   20d64:	1cc6b03a 	or	r3,r3,r19
   20d68:	dfc00717 	ldw	ra,28(sp)
   20d6c:	dd800617 	ldw	r22,24(sp)
   20d70:	dd400517 	ldw	r21,20(sp)
   20d74:	dd000417 	ldw	r20,16(sp)
   20d78:	dcc00317 	ldw	r19,12(sp)
   20d7c:	dc800217 	ldw	r18,8(sp)
   20d80:	dc400117 	ldw	r17,4(sp)
   20d84:	dc000017 	ldw	r16,0(sp)
   20d88:	dec00804 	addi	sp,sp,32
   20d8c:	f800283a 	ret
   20d90:	800697fa 	slli	r3,r16,31
   20d94:	8804d07a 	srli	r2,r17,1
   20d98:	21010004 	addi	r4,r4,1024
   20d9c:	8020d07a 	srli	r16,r16,1
   20da0:	18a2b03a 	or	r17,r3,r2
   20da4:	003fdf06 	br	20d24 <__pack_d+0x94>
   20da8:	88c0400c 	andi	r3,r17,256
   20dac:	183fd926 	beq	r3,zero,20d14 <__pack_d+0x84>
   20db0:	8885883a 	add	r2,r17,r2
   20db4:	1463803a 	cmpltu	r17,r2,r17
   20db8:	8c21883a 	add	r16,r17,r16
   20dbc:	1023883a 	mov	r17,r2
   20dc0:	003fd406 	br	20d14 <__pack_d+0x84>
   20dc4:	0101ffc4 	movi	r4,2047
   20dc8:	0005883a 	mov	r2,zero
   20dcc:	0021883a 	mov	r16,zero
   20dd0:	003fde06 	br	20d4c <__pack_d+0xbc>
   20dd4:	84000234 	orhi	r16,r16,8
   20dd8:	00c00434 	movhi	r3,16
   20ddc:	18ffffc4 	addi	r3,r3,-1
   20de0:	8805883a 	mov	r2,r17
   20de4:	80e0703a 	and	r16,r16,r3
   20de8:	0101ffc4 	movi	r4,2047
   20dec:	003fd706 	br	20d4c <__pack_d+0xbc>
   20df0:	1129c83a 	sub	r20,r2,r4
   20df4:	00800e04 	movi	r2,56
   20df8:	15002716 	blt	r2,r20,20e98 <__pack_d+0x208>
   20dfc:	800b883a 	mov	r5,r16
   20e00:	a00d883a 	mov	r6,r20
   20e04:	8809883a 	mov	r4,r17
   20e08:	0020edc0 	call	20edc <__lshrdi3>
   20e0c:	9009883a 	mov	r4,r18
   20e10:	000b883a 	mov	r5,zero
   20e14:	a00d883a 	mov	r6,r20
   20e18:	102d883a 	mov	r22,r2
   20e1c:	182b883a 	mov	r21,r3
   20e20:	0020f200 	call	20f20 <__ashldi3>
   20e24:	1009003a 	cmpeq	r4,r2,zero
   20e28:	1907c83a 	sub	r3,r3,r4
   20e2c:	10bfffc4 	addi	r2,r2,-1
   20e30:	1c20703a 	and	r16,r3,r16
   20e34:	1444703a 	and	r2,r2,r17
   20e38:	1404b03a 	or	r2,r2,r16
   20e3c:	1004c03a 	cmpne	r2,r2,zero
   20e40:	1584b03a 	or	r2,r2,r22
   20e44:	11003fcc 	andi	r4,r2,255
   20e48:	01402004 	movi	r5,128
   20e4c:	a807883a 	mov	r3,r21
   20e50:	2140131e 	bne	r4,r5,20ea0 <__pack_d+0x210>
   20e54:	1140400c 	andi	r5,r2,256
   20e58:	28000426 	beq	r5,zero,20e6c <__pack_d+0x1dc>
   20e5c:	1109883a 	add	r4,r2,r4
   20e60:	2085803a 	cmpltu	r2,r4,r2
   20e64:	1547883a 	add	r3,r2,r21
   20e68:	2005883a 	mov	r2,r4
   20e6c:	1808963a 	slli	r4,r3,24
   20e70:	1004d23a 	srli	r2,r2,8
   20e74:	1820913a 	slli	r16,r3,4
   20e78:	01440034 	movhi	r5,4096
   20e7c:	297fffc4 	addi	r5,r5,-1
   20e80:	2084b03a 	or	r2,r4,r2
   20e84:	8020d33a 	srli	r16,r16,12
   20e88:	01000044 	movi	r4,1
   20e8c:	28ffaf36 	bltu	r5,r3,20d4c <__pack_d+0xbc>
   20e90:	0009883a 	mov	r4,zero
   20e94:	003fad06 	br	20d4c <__pack_d+0xbc>
   20e98:	0005883a 	mov	r2,zero
   20e9c:	0007883a 	mov	r3,zero
   20ea0:	11001fc4 	addi	r4,r2,127
   20ea4:	2085803a 	cmpltu	r2,r4,r2
   20ea8:	10c7883a 	add	r3,r2,r3
   20eac:	2005883a 	mov	r2,r4
   20eb0:	003fee06 	br	20e6c <__pack_d+0x1dc>

00020eb4 <__mulsi3>:
   20eb4:	0005883a 	mov	r2,zero
   20eb8:	20000726 	beq	r4,zero,20ed8 <__mulsi3+0x24>
   20ebc:	20c0004c 	andi	r3,r4,1
   20ec0:	2008d07a 	srli	r4,r4,1
   20ec4:	18000126 	beq	r3,zero,20ecc <__mulsi3+0x18>
   20ec8:	1145883a 	add	r2,r2,r5
   20ecc:	294b883a 	add	r5,r5,r5
   20ed0:	203ffa1e 	bne	r4,zero,20ebc <__mulsi3+0x8>
   20ed4:	f800283a 	ret
   20ed8:	f800283a 	ret

00020edc <__lshrdi3>:
   20edc:	2005883a 	mov	r2,r4
   20ee0:	2807883a 	mov	r3,r5
   20ee4:	30000826 	beq	r6,zero,20f08 <__lshrdi3+0x2c>
   20ee8:	01000804 	movi	r4,32
   20eec:	2189c83a 	sub	r4,r4,r6
   20ef0:	0100060e 	bge	zero,r4,20f0c <__lshrdi3+0x30>
   20ef4:	1184d83a 	srl	r2,r2,r6
   20ef8:	2908983a 	sll	r4,r5,r4
   20efc:	298cd83a 	srl	r6,r5,r6
   20f00:	2084b03a 	or	r2,r4,r2
   20f04:	3007883a 	mov	r3,r6
   20f08:	f800283a 	ret
   20f0c:	0105c83a 	sub	r2,zero,r4
   20f10:	000d883a 	mov	r6,zero
   20f14:	2884d83a 	srl	r2,r5,r2
   20f18:	3007883a 	mov	r3,r6
   20f1c:	003ffa06 	br	20f08 <__lshrdi3+0x2c>

00020f20 <__ashldi3>:
   20f20:	2005883a 	mov	r2,r4
   20f24:	2807883a 	mov	r3,r5
   20f28:	30000826 	beq	r6,zero,20f4c <__ashldi3+0x2c>
   20f2c:	01000804 	movi	r4,32
   20f30:	2189c83a 	sub	r4,r4,r6
   20f34:	0100060e 	bge	zero,r4,20f50 <__ashldi3+0x30>
   20f38:	1108d83a 	srl	r4,r2,r4
   20f3c:	2986983a 	sll	r3,r5,r6
   20f40:	118c983a 	sll	r6,r2,r6
   20f44:	20c6b03a 	or	r3,r4,r3
   20f48:	3005883a 	mov	r2,r6
   20f4c:	f800283a 	ret
   20f50:	0107c83a 	sub	r3,zero,r4
   20f54:	000d883a 	mov	r6,zero
   20f58:	10c6983a 	sll	r3,r2,r3
   20f5c:	3005883a 	mov	r2,r6
   20f60:	003ffa06 	br	20f4c <__ashldi3+0x2c>

00020f64 <exit>:
   20f64:	defffe04 	addi	sp,sp,-8
   20f68:	000b883a 	mov	r5,zero
   20f6c:	dc000015 	stw	r16,0(sp)
   20f70:	dfc00115 	stw	ra,4(sp)
   20f74:	2021883a 	mov	r16,r4
   20f78:	00231700 	call	23170 <__call_exitprocs>
   20f7c:	008000f4 	movhi	r2,3
   20f80:	10bb8304 	addi	r2,r2,-4596
   20f84:	11000017 	ldw	r4,0(r2)
   20f88:	20800f17 	ldw	r2,60(r4)
   20f8c:	10000126 	beq	r2,zero,20f94 <exit+0x30>
   20f90:	103ee83a 	callr	r2
   20f94:	8009883a 	mov	r4,r16
   20f98:	002a4f00 	call	2a4f0 <_exit>

00020f9c <_printf_r>:
   20f9c:	defffd04 	addi	sp,sp,-12
   20fa0:	dfc00015 	stw	ra,0(sp)
   20fa4:	d9800115 	stw	r6,4(sp)
   20fa8:	d9c00215 	stw	r7,8(sp)
   20fac:	280d883a 	mov	r6,r5
   20fb0:	21400217 	ldw	r5,8(r4)
   20fb4:	d9c00104 	addi	r7,sp,4
   20fb8:	002115c0 	call	2115c <___vfprintf_internal_r>
   20fbc:	dfc00017 	ldw	ra,0(sp)
   20fc0:	dec00304 	addi	sp,sp,12
   20fc4:	f800283a 	ret

00020fc8 <printf>:
   20fc8:	defffc04 	addi	sp,sp,-16
   20fcc:	dfc00015 	stw	ra,0(sp)
   20fd0:	d9400115 	stw	r5,4(sp)
   20fd4:	d9800215 	stw	r6,8(sp)
   20fd8:	d9c00315 	stw	r7,12(sp)
   20fdc:	008000f4 	movhi	r2,3
   20fe0:	10bb8404 	addi	r2,r2,-4592
   20fe4:	10800017 	ldw	r2,0(r2)
   20fe8:	200b883a 	mov	r5,r4
   20fec:	d9800104 	addi	r6,sp,4
   20ff0:	11000217 	ldw	r4,8(r2)
   20ff4:	0022fd80 	call	22fd8 <__vfprintf_internal>
   20ff8:	dfc00017 	ldw	ra,0(sp)
   20ffc:	dec00404 	addi	sp,sp,16
   21000:	f800283a 	ret

00021004 <_puts_r>:
   21004:	defff604 	addi	sp,sp,-40
   21008:	dc400815 	stw	r17,32(sp)
   2100c:	2023883a 	mov	r17,r4
   21010:	2809883a 	mov	r4,r5
   21014:	dc000715 	stw	r16,28(sp)
   21018:	dfc00915 	stw	ra,36(sp)
   2101c:	2821883a 	mov	r16,r5
   21020:	002109c0 	call	2109c <strlen>
   21024:	10c00044 	addi	r3,r2,1
   21028:	d8800115 	stw	r2,4(sp)
   2102c:	89400217 	ldw	r5,8(r17)
   21030:	008000f4 	movhi	r2,3
   21034:	10b47304 	addi	r2,r2,-11828
   21038:	d8800215 	stw	r2,8(sp)
   2103c:	00800044 	movi	r2,1
   21040:	d8800315 	stw	r2,12(sp)
   21044:	8809883a 	mov	r4,r17
   21048:	00800084 	movi	r2,2
   2104c:	d9800404 	addi	r6,sp,16
   21050:	dc000015 	stw	r16,0(sp)
   21054:	d8c00615 	stw	r3,24(sp)
   21058:	dec00415 	stw	sp,16(sp)
   2105c:	d8800515 	stw	r2,20(sp)
   21060:	00254780 	call	25478 <__sfvwrite_r>
   21064:	1000061e 	bne	r2,zero,21080 <_puts_r+0x7c>
   21068:	00800284 	movi	r2,10
   2106c:	dfc00917 	ldw	ra,36(sp)
   21070:	dc400817 	ldw	r17,32(sp)
   21074:	dc000717 	ldw	r16,28(sp)
   21078:	dec00a04 	addi	sp,sp,40
   2107c:	f800283a 	ret
   21080:	00bfffc4 	movi	r2,-1
   21084:	003ff906 	br	2106c <_puts_r+0x68>

00021088 <puts>:
   21088:	008000f4 	movhi	r2,3
   2108c:	10bb8404 	addi	r2,r2,-4592
   21090:	200b883a 	mov	r5,r4
   21094:	11000017 	ldw	r4,0(r2)
   21098:	00210041 	jmpi	21004 <_puts_r>

0002109c <strlen>:
   2109c:	208000cc 	andi	r2,r4,3
   210a0:	10001f1e 	bne	r2,zero,21120 <strlen+0x84>
   210a4:	20800017 	ldw	r2,0(r4)
   210a8:	01ffbff4 	movhi	r7,65279
   210ac:	39ffbfc4 	addi	r7,r7,-257
   210b0:	01a02074 	movhi	r6,32897
   210b4:	31a02004 	addi	r6,r6,-32640
   210b8:	11c7883a 	add	r3,r2,r7
   210bc:	0084303a 	nor	r2,zero,r2
   210c0:	1886703a 	and	r3,r3,r2
   210c4:	1986703a 	and	r3,r3,r6
   210c8:	2005883a 	mov	r2,r4
   210cc:	1800101e 	bne	r3,zero,21110 <strlen+0x74>
   210d0:	10800104 	addi	r2,r2,4
   210d4:	10c00017 	ldw	r3,0(r2)
   210d8:	19cb883a 	add	r5,r3,r7
   210dc:	00c6303a 	nor	r3,zero,r3
   210e0:	28c6703a 	and	r3,r5,r3
   210e4:	1986703a 	and	r3,r3,r6
   210e8:	1800091e 	bne	r3,zero,21110 <strlen+0x74>
   210ec:	10800104 	addi	r2,r2,4
   210f0:	10c00017 	ldw	r3,0(r2)
   210f4:	19cb883a 	add	r5,r3,r7
   210f8:	00c6303a 	nor	r3,zero,r3
   210fc:	28c6703a 	and	r3,r5,r3
   21100:	1986703a 	and	r3,r3,r6
   21104:	183ff226 	beq	r3,zero,210d0 <strlen+0x34>
   21108:	00000106 	br	21110 <strlen+0x74>
   2110c:	10800044 	addi	r2,r2,1
   21110:	10c00007 	ldb	r3,0(r2)
   21114:	183ffd1e 	bne	r3,zero,2110c <strlen+0x70>
   21118:	1105c83a 	sub	r2,r2,r4
   2111c:	f800283a 	ret
   21120:	2005883a 	mov	r2,r4
   21124:	003ffa06 	br	21110 <strlen+0x74>

00021128 <__sprint_r>:
   21128:	30800217 	ldw	r2,8(r6)
   2112c:	defffe04 	addi	sp,sp,-8
   21130:	dc000015 	stw	r16,0(sp)
   21134:	dfc00115 	stw	ra,4(sp)
   21138:	3021883a 	mov	r16,r6
   2113c:	10000226 	beq	r2,zero,21148 <__sprint_r+0x20>
   21140:	00254780 	call	25478 <__sfvwrite_r>
   21144:	80000215 	stw	zero,8(r16)
   21148:	80000115 	stw	zero,4(r16)
   2114c:	dfc00117 	ldw	ra,4(sp)
   21150:	dc000017 	ldw	r16,0(sp)
   21154:	dec00204 	addi	sp,sp,8
   21158:	f800283a 	ret

0002115c <___vfprintf_internal_r>:
   2115c:	defeb904 	addi	sp,sp,-1308
   21160:	dc013d15 	stw	r16,1268(sp)
   21164:	d9013015 	stw	r4,1216(sp)
   21168:	dfc14615 	stw	ra,1304(sp)
   2116c:	df014515 	stw	fp,1300(sp)
   21170:	ddc14415 	stw	r23,1296(sp)
   21174:	dd814315 	stw	r22,1292(sp)
   21178:	dd414215 	stw	r21,1288(sp)
   2117c:	dd014115 	stw	r20,1284(sp)
   21180:	dcc14015 	stw	r19,1280(sp)
   21184:	dc813f15 	stw	r18,1276(sp)
   21188:	dc413e15 	stw	r17,1272(sp)
   2118c:	d9412915 	stw	r5,1188(sp)
   21190:	3021883a 	mov	r16,r6
   21194:	d9c12d15 	stw	r7,1204(sp)
   21198:	0025b640 	call	25b64 <_localeconv_r>
   2119c:	10800017 	ldw	r2,0(r2)
   211a0:	d9013017 	ldw	r4,1216(sp)
   211a4:	d8013315 	stw	zero,1228(sp)
   211a8:	d8813715 	stw	r2,1244(sp)
   211ac:	d8013415 	stw	zero,1232(sp)
   211b0:	20000226 	beq	r4,zero,211bc <___vfprintf_internal_r+0x60>
   211b4:	20800e17 	ldw	r2,56(r4)
   211b8:	10014b26 	beq	r2,zero,216e8 <___vfprintf_internal_r+0x58c>
   211bc:	d8c12917 	ldw	r3,1188(sp)
   211c0:	1880030b 	ldhu	r2,12(r3)
   211c4:	10c0020c 	andi	r3,r2,8
   211c8:	18ffffcc 	andi	r3,r3,65535
   211cc:	18e0001c 	xori	r3,r3,32768
   211d0:	18e00004 	addi	r3,r3,-32768
   211d4:	1800ed26 	beq	r3,zero,2158c <___vfprintf_internal_r+0x430>
   211d8:	d9012917 	ldw	r4,1188(sp)
   211dc:	20c00417 	ldw	r3,16(r4)
   211e0:	1800ea26 	beq	r3,zero,2158c <___vfprintf_internal_r+0x430>
   211e4:	1100068c 	andi	r4,r2,26
   211e8:	00c00284 	movi	r3,10
   211ec:	20c0f026 	beq	r4,r3,215b0 <___vfprintf_internal_r+0x454>
   211f0:	d9010dc4 	addi	r4,sp,1079
   211f4:	d8810e04 	addi	r2,sp,1080
   211f8:	dc413017 	ldw	r17,1216(sp)
   211fc:	d8c00404 	addi	r3,sp,16
   21200:	d9012615 	stw	r4,1176(sp)
   21204:	1109c83a 	sub	r4,r2,r4
   21208:	d8812715 	stw	r2,1180(sp)
   2120c:	d8c11b15 	stw	r3,1132(sp)
   21210:	d8011d15 	stw	zero,1140(sp)
   21214:	d8011c15 	stw	zero,1136(sp)
   21218:	802b883a 	mov	r21,r16
   2121c:	d8013215 	stw	zero,1224(sp)
   21220:	d8013615 	stw	zero,1240(sp)
   21224:	d8013515 	stw	zero,1236(sp)
   21228:	d8012c15 	stw	zero,1200(sp)
   2122c:	1813883a 	mov	r9,r3
   21230:	d9013915 	stw	r4,1252(sp)
   21234:	a8800007 	ldb	r2,0(r21)
   21238:	1002f326 	beq	r2,zero,21e08 <___vfprintf_internal_r+0xcac>
   2123c:	00c00944 	movi	r3,37
   21240:	a825883a 	mov	r18,r21
   21244:	10c0021e 	bne	r2,r3,21250 <___vfprintf_internal_r+0xf4>
   21248:	00001406 	br	2129c <___vfprintf_internal_r+0x140>
   2124c:	10c00326 	beq	r2,r3,2125c <___vfprintf_internal_r+0x100>
   21250:	94800044 	addi	r18,r18,1
   21254:	90800007 	ldb	r2,0(r18)
   21258:	103ffc1e 	bne	r2,zero,2124c <___vfprintf_internal_r+0xf0>
   2125c:	9561c83a 	sub	r16,r18,r21
   21260:	80000e26 	beq	r16,zero,2129c <___vfprintf_internal_r+0x140>
   21264:	da011d17 	ldw	r8,1140(sp)
   21268:	d8c11c17 	ldw	r3,1136(sp)
   2126c:	4d400015 	stw	r21,0(r9)
   21270:	4c000115 	stw	r16,4(r9)
   21274:	4411883a 	add	r8,r8,r16
   21278:	18c00044 	addi	r3,r3,1
   2127c:	da011d15 	stw	r8,1140(sp)
   21280:	d8c11c15 	stw	r3,1136(sp)
   21284:	008001c4 	movi	r2,7
   21288:	10c11016 	blt	r2,r3,216cc <___vfprintf_internal_r+0x570>
   2128c:	4a400204 	addi	r9,r9,8
   21290:	d8812c17 	ldw	r2,1200(sp)
   21294:	1405883a 	add	r2,r2,r16
   21298:	d8812c15 	stw	r2,1200(sp)
   2129c:	90800007 	ldb	r2,0(r18)
   212a0:	1000ee26 	beq	r2,zero,2165c <___vfprintf_internal_r+0x500>
   212a4:	95400044 	addi	r21,r18,1
   212a8:	94800047 	ldb	r18,1(r18)
   212ac:	073fffc4 	movi	fp,-1
   212b0:	e007883a 	mov	r3,fp
   212b4:	d8012585 	stb	zero,1174(sp)
   212b8:	d8012e15 	stw	zero,1208(sp)
   212bc:	0021883a 	mov	r16,zero
   212c0:	05001604 	movi	r20,88
   212c4:	04c00244 	movi	r19,9
   212c8:	4839883a 	mov	fp,r9
   212cc:	ad400044 	addi	r21,r21,1
   212d0:	90bff804 	addi	r2,r18,-32
   212d4:	a080462e 	bgeu	r20,r2,213f0 <___vfprintf_internal_r+0x294>
   212d8:	e013883a 	mov	r9,fp
   212dc:	9000df26 	beq	r18,zero,2165c <___vfprintf_internal_r+0x500>
   212e0:	00c00044 	movi	r3,1
   212e4:	d8c12815 	stw	r3,1184(sp)
   212e8:	dc810405 	stb	r18,1040(sp)
   212ec:	d8012585 	stb	zero,1174(sp)
   212f0:	d8c12b15 	stw	r3,1196(sp)
   212f4:	dcc10404 	addi	r19,sp,1040
   212f8:	d8013115 	stw	zero,1220(sp)
   212fc:	80c0008c 	andi	r3,r16,2
   21300:	d8c12a15 	stw	r3,1192(sp)
   21304:	18000326 	beq	r3,zero,21314 <___vfprintf_internal_r+0x1b8>
   21308:	d8c12817 	ldw	r3,1184(sp)
   2130c:	18c00084 	addi	r3,r3,2
   21310:	d8c12815 	stw	r3,1184(sp)
   21314:	80c0210c 	andi	r3,r16,132
   21318:	d8c12f15 	stw	r3,1212(sp)
   2131c:	1802251e 	bne	r3,zero,21bb4 <___vfprintf_internal_r+0xa58>
   21320:	d9012e17 	ldw	r4,1208(sp)
   21324:	d8c12817 	ldw	r3,1184(sp)
   21328:	20edc83a 	sub	r22,r4,r3
   2132c:	0582210e 	bge	zero,r22,21bb4 <___vfprintf_internal_r+0xa58>
   21330:	02800404 	movi	r10,16
   21334:	da011d17 	ldw	r8,1140(sp)
   21338:	d8c11c17 	ldw	r3,1136(sp)
   2133c:	05c000f4 	movhi	r23,3
   21340:	bdf48484 	addi	r23,r23,-11758
   21344:	5580200e 	bge	r10,r22,213c8 <___vfprintf_internal_r+0x26c>
   21348:	dc813815 	stw	r18,1248(sp)
   2134c:	5039883a 	mov	fp,r10
   21350:	b825883a 	mov	r18,r23
   21354:	050001c4 	movi	r20,7
   21358:	b02f883a 	mov	r23,r22
   2135c:	802d883a 	mov	r22,r16
   21360:	dc012917 	ldw	r16,1188(sp)
   21364:	00000306 	br	21374 <___vfprintf_internal_r+0x218>
   21368:	bdfffc04 	addi	r23,r23,-16
   2136c:	4a400204 	addi	r9,r9,8
   21370:	e5c0110e 	bge	fp,r23,213b8 <___vfprintf_internal_r+0x25c>
   21374:	4c800015 	stw	r18,0(r9)
   21378:	4f000115 	stw	fp,4(r9)
   2137c:	42000404 	addi	r8,r8,16
   21380:	18c00044 	addi	r3,r3,1
   21384:	da011d15 	stw	r8,1140(sp)
   21388:	d8c11c15 	stw	r3,1136(sp)
   2138c:	a0fff60e 	bge	r20,r3,21368 <___vfprintf_internal_r+0x20c>
   21390:	8809883a 	mov	r4,r17
   21394:	800b883a 	mov	r5,r16
   21398:	d9811b04 	addi	r6,sp,1132
   2139c:	00211280 	call	21128 <__sprint_r>
   213a0:	1000b41e 	bne	r2,zero,21674 <___vfprintf_internal_r+0x518>
   213a4:	bdfffc04 	addi	r23,r23,-16
   213a8:	da011d17 	ldw	r8,1140(sp)
   213ac:	d8c11c17 	ldw	r3,1136(sp)
   213b0:	da400404 	addi	r9,sp,16
   213b4:	e5ffef16 	blt	fp,r23,21374 <___vfprintf_internal_r+0x218>
   213b8:	b021883a 	mov	r16,r22
   213bc:	b82d883a 	mov	r22,r23
   213c0:	902f883a 	mov	r23,r18
   213c4:	dc813817 	ldw	r18,1248(sp)
   213c8:	4dc00015 	stw	r23,0(r9)
   213cc:	4d800115 	stw	r22,4(r9)
   213d0:	4591883a 	add	r8,r8,r22
   213d4:	18c00044 	addi	r3,r3,1
   213d8:	da011d15 	stw	r8,1140(sp)
   213dc:	d8c11c15 	stw	r3,1136(sp)
   213e0:	008001c4 	movi	r2,7
   213e4:	10c3fe16 	blt	r2,r3,223e0 <___vfprintf_internal_r+0x1284>
   213e8:	4a400204 	addi	r9,r9,8
   213ec:	0001f306 	br	21bbc <___vfprintf_internal_r+0xa60>
   213f0:	1085883a 	add	r2,r2,r2
   213f4:	1085883a 	add	r2,r2,r2
   213f8:	010000b4 	movhi	r4,2
   213fc:	21050304 	addi	r4,r4,5132
   21400:	1105883a 	add	r2,r2,r4
   21404:	10800017 	ldw	r2,0(r2)
   21408:	1000683a 	jmp	r2
   2140c:	00021ae8 	cmpgeui	zero,zero,2155
   21410:	000212d8 	cmpnei	zero,zero,2123
   21414:	000212d8 	cmpnei	zero,zero,2123
   21418:	00021b00 	call	21b0 <__alt_mem_onchip_mem_c1-0x1de50>
   2141c:	000212d8 	cmpnei	zero,zero,2123
   21420:	000212d8 	cmpnei	zero,zero,2123
   21424:	000212d8 	cmpnei	zero,zero,2123
   21428:	000212d8 	cmpnei	zero,zero,2123
   2142c:	000212d8 	cmpnei	zero,zero,2123
   21430:	000212d8 	cmpnei	zero,zero,2123
   21434:	000219b8 	rdprs	zero,zero,2150
   21438:	00021b4c 	andi	zero,zero,2157
   2143c:	000212d8 	cmpnei	zero,zero,2123
   21440:	00021580 	call	2158 <__alt_mem_onchip_mem_c1-0x1dea8>
   21444:	00021920 	cmpeqi	zero,zero,2148
   21448:	000212d8 	cmpnei	zero,zero,2123
   2144c:	00021b0c 	andi	zero,zero,2156
   21450:	00021b18 	cmpnei	zero,zero,2156
   21454:	00021b18 	cmpnei	zero,zero,2156
   21458:	00021b18 	cmpnei	zero,zero,2156
   2145c:	00021b18 	cmpnei	zero,zero,2156
   21460:	00021b18 	cmpnei	zero,zero,2156
   21464:	00021b18 	cmpnei	zero,zero,2156
   21468:	00021b18 	cmpnei	zero,zero,2156
   2146c:	00021b18 	cmpnei	zero,zero,2156
   21470:	00021b18 	cmpnei	zero,zero,2156
   21474:	000212d8 	cmpnei	zero,zero,2123
   21478:	000212d8 	cmpnei	zero,zero,2123
   2147c:	000212d8 	cmpnei	zero,zero,2123
   21480:	000212d8 	cmpnei	zero,zero,2123
   21484:	000212d8 	cmpnei	zero,zero,2123
   21488:	000212d8 	cmpnei	zero,zero,2123
   2148c:	000212d8 	cmpnei	zero,zero,2123
   21490:	000212d8 	cmpnei	zero,zero,2123
   21494:	000212d8 	cmpnei	zero,zero,2123
   21498:	000212d8 	cmpnei	zero,zero,2123
   2149c:	000216f0 	cmpltui	zero,zero,2139
   214a0:	000217b0 	cmpltui	zero,zero,2142
   214a4:	000212d8 	cmpnei	zero,zero,2123
   214a8:	000217b0 	cmpltui	zero,zero,2142
   214ac:	000212d8 	cmpnei	zero,zero,2123
   214b0:	000212d8 	cmpnei	zero,zero,2123
   214b4:	000212d8 	cmpnei	zero,zero,2123
   214b8:	000212d8 	cmpnei	zero,zero,2123
   214bc:	00021844 	movi	zero,2145
   214c0:	000212d8 	cmpnei	zero,zero,2123
   214c4:	000212d8 	cmpnei	zero,zero,2123
   214c8:	00021850 	cmplti	zero,zero,2145
   214cc:	000212d8 	cmpnei	zero,zero,2123
   214d0:	000212d8 	cmpnei	zero,zero,2123
   214d4:	000212d8 	cmpnei	zero,zero,2123
   214d8:	000212d8 	cmpnei	zero,zero,2123
   214dc:	000212d8 	cmpnei	zero,zero,2123
   214e0:	00021888 	cmpgei	zero,zero,2146
   214e4:	000212d8 	cmpnei	zero,zero,2123
   214e8:	000212d8 	cmpnei	zero,zero,2123
   214ec:	000218c4 	movi	zero,2147
   214f0:	000212d8 	cmpnei	zero,zero,2123
   214f4:	000212d8 	cmpnei	zero,zero,2123
   214f8:	000212d8 	cmpnei	zero,zero,2123
   214fc:	000212d8 	cmpnei	zero,zero,2123
   21500:	000212d8 	cmpnei	zero,zero,2123
   21504:	000212d8 	cmpnei	zero,zero,2123
   21508:	000212d8 	cmpnei	zero,zero,2123
   2150c:	000212d8 	cmpnei	zero,zero,2123
   21510:	000212d8 	cmpnei	zero,zero,2123
   21514:	000212d8 	cmpnei	zero,zero,2123
   21518:	00021b5c 	xori	zero,zero,2157
   2151c:	00021b90 	cmplti	zero,zero,2158
   21520:	000217b0 	cmpltui	zero,zero,2142
   21524:	000217b0 	cmpltui	zero,zero,2142
   21528:	000217b0 	cmpltui	zero,zero,2142
   2152c:	00021adc 	xori	zero,zero,2155
   21530:	00021b90 	cmplti	zero,zero,2158
   21534:	000212d8 	cmpnei	zero,zero,2123
   21538:	000212d8 	cmpnei	zero,zero,2123
   2153c:	00021968 	cmpgeui	zero,zero,2149
   21540:	000212d8 	cmpnei	zero,zero,2123
   21544:	00021980 	call	2198 <__alt_mem_onchip_mem_c1-0x1de68>
   21548:	00021b9c 	xori	zero,zero,2158
   2154c:	000219e0 	cmpeqi	zero,zero,2151
   21550:	00021a30 	cmpltui	zero,zero,2152
   21554:	000212d8 	cmpnei	zero,zero,2123
   21558:	00021a3c 	xorhi	zero,zero,2152
   2155c:	000212d8 	cmpnei	zero,zero,2123
   21560:	00021ba8 	cmpgeui	zero,zero,2158
   21564:	000212d8 	cmpnei	zero,zero,2123
   21568:	000212d8 	cmpnei	zero,zero,2123
   2156c:	00021aa0 	cmpeqi	zero,zero,2154
   21570:	d9012e17 	ldw	r4,1208(sp)
   21574:	d8812d15 	stw	r2,1204(sp)
   21578:	0109c83a 	sub	r4,zero,r4
   2157c:	d9012e15 	stw	r4,1208(sp)
   21580:	84000114 	ori	r16,r16,4
   21584:	ac800007 	ldb	r18,0(r21)
   21588:	003f5006 	br	212cc <___vfprintf_internal_r+0x170>
   2158c:	d9013017 	ldw	r4,1216(sp)
   21590:	d9412917 	ldw	r5,1188(sp)
   21594:	0022ffc0 	call	22ffc <__swsetup_r>
   21598:	10003d1e 	bne	r2,zero,21690 <___vfprintf_internal_r+0x534>
   2159c:	d8c12917 	ldw	r3,1188(sp)
   215a0:	1880030b 	ldhu	r2,12(r3)
   215a4:	00c00284 	movi	r3,10
   215a8:	1100068c 	andi	r4,r2,26
   215ac:	20ff101e 	bne	r4,r3,211f0 <___vfprintf_internal_r+0x94>
   215b0:	d9012917 	ldw	r4,1188(sp)
   215b4:	20c0038b 	ldhu	r3,14(r4)
   215b8:	193fffcc 	andi	r4,r3,65535
   215bc:	2120001c 	xori	r4,r4,32768
   215c0:	21200004 	addi	r4,r4,-32768
   215c4:	203f0a16 	blt	r4,zero,211f0 <___vfprintf_internal_r+0x94>
   215c8:	d9012917 	ldw	r4,1188(sp)
   215cc:	d9c12d17 	ldw	r7,1204(sp)
   215d0:	10bfff4c 	andi	r2,r2,65533
   215d4:	22800717 	ldw	r10,28(r4)
   215d8:	22400917 	ldw	r9,36(r4)
   215dc:	d9013017 	ldw	r4,1216(sp)
   215e0:	02010004 	movi	r8,1024
   215e4:	d881070d 	sth	r2,1052(sp)
   215e8:	d9410404 	addi	r5,sp,1040
   215ec:	d8800404 	addi	r2,sp,16
   215f0:	800d883a 	mov	r6,r16
   215f4:	d8c1078d 	sth	r3,1054(sp)
   215f8:	da810b15 	stw	r10,1068(sp)
   215fc:	da410d15 	stw	r9,1076(sp)
   21600:	d8810415 	stw	r2,1040(sp)
   21604:	d8810815 	stw	r2,1056(sp)
   21608:	da010615 	stw	r8,1048(sp)
   2160c:	da010915 	stw	r8,1060(sp)
   21610:	d8010a15 	stw	zero,1064(sp)
   21614:	002115c0 	call	2115c <___vfprintf_internal_r>
   21618:	d8812c15 	stw	r2,1200(sp)
   2161c:	10000416 	blt	r2,zero,21630 <___vfprintf_internal_r+0x4d4>
   21620:	d9013017 	ldw	r4,1216(sp)
   21624:	d9410404 	addi	r5,sp,1040
   21628:	0024b680 	call	24b68 <_fflush_r>
   2162c:	1006501e 	bne	r2,zero,22f70 <___vfprintf_internal_r+0x1e14>
   21630:	d881070b 	ldhu	r2,1052(sp)
   21634:	1080100c 	andi	r2,r2,64
   21638:	10bfffcc 	andi	r2,r2,65535
   2163c:	10a0001c 	xori	r2,r2,32768
   21640:	10a00004 	addi	r2,r2,-32768
   21644:	10001426 	beq	r2,zero,21698 <___vfprintf_internal_r+0x53c>
   21648:	d8c12917 	ldw	r3,1188(sp)
   2164c:	1880030b 	ldhu	r2,12(r3)
   21650:	10801014 	ori	r2,r2,64
   21654:	1880030d 	sth	r2,12(r3)
   21658:	00000f06 	br	21698 <___vfprintf_internal_r+0x53c>
   2165c:	d8811d17 	ldw	r2,1140(sp)
   21660:	10000426 	beq	r2,zero,21674 <___vfprintf_internal_r+0x518>
   21664:	d9013017 	ldw	r4,1216(sp)
   21668:	d9412917 	ldw	r5,1188(sp)
   2166c:	d9811b04 	addi	r6,sp,1132
   21670:	00211280 	call	21128 <__sprint_r>
   21674:	d8c12917 	ldw	r3,1188(sp)
   21678:	1880030b 	ldhu	r2,12(r3)
   2167c:	1080100c 	andi	r2,r2,64
   21680:	10bfffcc 	andi	r2,r2,65535
   21684:	10a0001c 	xori	r2,r2,32768
   21688:	10a00004 	addi	r2,r2,-32768
   2168c:	10000226 	beq	r2,zero,21698 <___vfprintf_internal_r+0x53c>
   21690:	00bfffc4 	movi	r2,-1
   21694:	d8812c15 	stw	r2,1200(sp)
   21698:	d8812c17 	ldw	r2,1200(sp)
   2169c:	dfc14617 	ldw	ra,1304(sp)
   216a0:	df014517 	ldw	fp,1300(sp)
   216a4:	ddc14417 	ldw	r23,1296(sp)
   216a8:	dd814317 	ldw	r22,1292(sp)
   216ac:	dd414217 	ldw	r21,1288(sp)
   216b0:	dd014117 	ldw	r20,1284(sp)
   216b4:	dcc14017 	ldw	r19,1280(sp)
   216b8:	dc813f17 	ldw	r18,1276(sp)
   216bc:	dc413e17 	ldw	r17,1272(sp)
   216c0:	dc013d17 	ldw	r16,1268(sp)
   216c4:	dec14704 	addi	sp,sp,1308
   216c8:	f800283a 	ret
   216cc:	d9412917 	ldw	r5,1188(sp)
   216d0:	8809883a 	mov	r4,r17
   216d4:	d9811b04 	addi	r6,sp,1132
   216d8:	00211280 	call	21128 <__sprint_r>
   216dc:	103fe51e 	bne	r2,zero,21674 <___vfprintf_internal_r+0x518>
   216e0:	da400404 	addi	r9,sp,16
   216e4:	003eea06 	br	21290 <___vfprintf_internal_r+0x134>
   216e8:	0024e240 	call	24e24 <__sinit>
   216ec:	003eb306 	br	211bc <___vfprintf_internal_r+0x60>
   216f0:	e013883a 	mov	r9,fp
   216f4:	84000414 	ori	r16,r16,16
   216f8:	1839883a 	mov	fp,r3
   216fc:	8080080c 	andi	r2,r16,32
   21700:	10034426 	beq	r2,zero,22414 <___vfprintf_internal_r+0x12b8>
   21704:	d8c12d17 	ldw	r3,1204(sp)
   21708:	18800117 	ldw	r2,4(r3)
   2170c:	1dc00017 	ldw	r23,0(r3)
   21710:	18c00204 	addi	r3,r3,8
   21714:	d8c12d15 	stw	r3,1204(sp)
   21718:	102d883a 	mov	r22,r2
   2171c:	1003020e 	bge	r2,zero,22328 <___vfprintf_internal_r+0x11cc>
   21720:	05efc83a 	sub	r23,zero,r23
   21724:	b804c03a 	cmpne	r2,r23,zero
   21728:	05adc83a 	sub	r22,zero,r22
   2172c:	b0adc83a 	sub	r22,r22,r2
   21730:	00800b44 	movi	r2,45
   21734:	d8812585 	stb	r2,1174(sp)
   21738:	00c00044 	movi	r3,1
   2173c:	bd84b03a 	or	r2,r23,r22
   21740:	e0000216 	blt	fp,zero,2174c <___vfprintf_internal_r+0x5f0>
   21744:	013fdfc4 	movi	r4,-129
   21748:	8120703a 	and	r16,r16,r4
   2174c:	1001cc1e 	bne	r2,zero,21e80 <___vfprintf_internal_r+0xd24>
   21750:	e001cb1e 	bne	fp,zero,21e80 <___vfprintf_internal_r+0xd24>
   21754:	18c03fcc 	andi	r3,r3,255
   21758:	1802ca1e 	bne	r3,zero,22284 <___vfprintf_internal_r+0x1128>
   2175c:	8080004c 	andi	r2,r16,1
   21760:	1002c826 	beq	r2,zero,22284 <___vfprintf_internal_r+0x1128>
   21764:	d8c13917 	ldw	r3,1252(sp)
   21768:	00800c04 	movi	r2,48
   2176c:	d8810dc5 	stb	r2,1079(sp)
   21770:	d8c12b15 	stw	r3,1196(sp)
   21774:	dcc10dc4 	addi	r19,sp,1079
   21778:	d8812b17 	ldw	r2,1196(sp)
   2177c:	d8812815 	stw	r2,1184(sp)
   21780:	1700010e 	bge	r2,fp,21788 <___vfprintf_internal_r+0x62c>
   21784:	df012815 	stw	fp,1184(sp)
   21788:	d8812583 	ldbu	r2,1174(sp)
   2178c:	df013115 	stw	fp,1220(sp)
   21790:	10803fcc 	andi	r2,r2,255
   21794:	1080201c 	xori	r2,r2,128
   21798:	10bfe004 	addi	r2,r2,-128
   2179c:	103ed726 	beq	r2,zero,212fc <___vfprintf_internal_r+0x1a0>
   217a0:	d8c12817 	ldw	r3,1184(sp)
   217a4:	18c00044 	addi	r3,r3,1
   217a8:	d8c12815 	stw	r3,1184(sp)
   217ac:	003ed306 	br	212fc <___vfprintf_internal_r+0x1a0>
   217b0:	8080020c 	andi	r2,r16,8
   217b4:	e013883a 	mov	r9,fp
   217b8:	1839883a 	mov	fp,r3
   217bc:	1003a626 	beq	r2,zero,22658 <___vfprintf_internal_r+0x14fc>
   217c0:	d9012d17 	ldw	r4,1204(sp)
   217c4:	25800017 	ldw	r22,0(r4)
   217c8:	25000117 	ldw	r20,4(r4)
   217cc:	21000204 	addi	r4,r4,8
   217d0:	d9012d15 	stw	r4,1204(sp)
   217d4:	dd813315 	stw	r22,1228(sp)
   217d8:	dd013415 	stw	r20,1232(sp)
   217dc:	b009883a 	mov	r4,r22
   217e0:	a00b883a 	mov	r5,r20
   217e4:	da413c15 	stw	r9,1264(sp)
   217e8:	0027fb00 	call	27fb0 <__isinfd>
   217ec:	da413c17 	ldw	r9,1264(sp)
   217f0:	b009883a 	mov	r4,r22
   217f4:	a00b883a 	mov	r5,r20
   217f8:	10041d26 	beq	r2,zero,22870 <___vfprintf_internal_r+0x1714>
   217fc:	000d883a 	mov	r6,zero
   21800:	000f883a 	mov	r7,zero
   21804:	0029d840 	call	29d84 <__ltdf2>
   21808:	da413c17 	ldw	r9,1264(sp)
   2180c:	1004da16 	blt	r2,zero,22b78 <___vfprintf_internal_r+0x1a1c>
   21810:	d8812583 	ldbu	r2,1174(sp)
   21814:	00c011c4 	movi	r3,71
   21818:	1c83d116 	blt	r3,r18,22760 <___vfprintf_internal_r+0x1604>
   2181c:	04c000f4 	movhi	r19,3
   21820:	9cf47404 	addi	r19,r19,-11824
   21824:	00c000c4 	movi	r3,3
   21828:	d8c12815 	stw	r3,1184(sp)
   2182c:	00ffdfc4 	movi	r3,-129
   21830:	80e0703a 	and	r16,r16,r3
   21834:	d8c12817 	ldw	r3,1184(sp)
   21838:	d8013115 	stw	zero,1220(sp)
   2183c:	d8c12b15 	stw	r3,1196(sp)
   21840:	003fd306 	br	21790 <___vfprintf_internal_r+0x634>
   21844:	84000214 	ori	r16,r16,8
   21848:	ac800007 	ldb	r18,0(r21)
   2184c:	003e9f06 	br	212cc <___vfprintf_internal_r+0x170>
   21850:	e013883a 	mov	r9,fp
   21854:	84000414 	ori	r16,r16,16
   21858:	1839883a 	mov	fp,r3
   2185c:	8080080c 	andi	r2,r16,32
   21860:	10031d26 	beq	r2,zero,224d8 <___vfprintf_internal_r+0x137c>
   21864:	d8812d17 	ldw	r2,1204(sp)
   21868:	0007883a 	mov	r3,zero
   2186c:	15c00017 	ldw	r23,0(r2)
   21870:	15800117 	ldw	r22,4(r2)
   21874:	10800204 	addi	r2,r2,8
   21878:	d8812d15 	stw	r2,1204(sp)
   2187c:	d8012585 	stb	zero,1174(sp)
   21880:	bd84b03a 	or	r2,r23,r22
   21884:	003fae06 	br	21740 <___vfprintf_internal_r+0x5e4>
   21888:	e013883a 	mov	r9,fp
   2188c:	84000414 	ori	r16,r16,16
   21890:	1839883a 	mov	fp,r3
   21894:	8080080c 	andi	r2,r16,32
   21898:	1002e726 	beq	r2,zero,22438 <___vfprintf_internal_r+0x12dc>
   2189c:	d8c12d17 	ldw	r3,1204(sp)
   218a0:	d9012d17 	ldw	r4,1204(sp)
   218a4:	1dc00017 	ldw	r23,0(r3)
   218a8:	1d800117 	ldw	r22,4(r3)
   218ac:	21000204 	addi	r4,r4,8
   218b0:	00c00044 	movi	r3,1
   218b4:	d9012d15 	stw	r4,1204(sp)
   218b8:	bd84b03a 	or	r2,r23,r22
   218bc:	d8012585 	stb	zero,1174(sp)
   218c0:	003f9f06 	br	21740 <___vfprintf_internal_r+0x5e4>
   218c4:	e013883a 	mov	r9,fp
   218c8:	1839883a 	mov	fp,r3
   218cc:	00c000f4 	movhi	r3,3
   218d0:	18f47804 	addi	r3,r3,-11808
   218d4:	d8c13615 	stw	r3,1240(sp)
   218d8:	8080080c 	andi	r2,r16,32
   218dc:	10007726 	beq	r2,zero,21abc <___vfprintf_internal_r+0x960>
   218e0:	d9012d17 	ldw	r4,1204(sp)
   218e4:	25c00017 	ldw	r23,0(r4)
   218e8:	25800117 	ldw	r22,4(r4)
   218ec:	21000204 	addi	r4,r4,8
   218f0:	d9012d15 	stw	r4,1204(sp)
   218f4:	8080004c 	andi	r2,r16,1
   218f8:	1002c226 	beq	r2,zero,22404 <___vfprintf_internal_r+0x12a8>
   218fc:	bd84b03a 	or	r2,r23,r22
   21900:	10035d26 	beq	r2,zero,22678 <___vfprintf_internal_r+0x151c>
   21904:	00c00c04 	movi	r3,48
   21908:	d8c12505 	stb	r3,1172(sp)
   2190c:	dc812545 	stb	r18,1173(sp)
   21910:	84000094 	ori	r16,r16,2
   21914:	00c00084 	movi	r3,2
   21918:	d8012585 	stb	zero,1174(sp)
   2191c:	003f8806 	br	21740 <___vfprintf_internal_r+0x5e4>
   21920:	ac800007 	ldb	r18,0(r21)
   21924:	00c00a84 	movi	r3,42
   21928:	adc00044 	addi	r23,r21,1
   2192c:	90c57526 	beq	r18,r3,22f04 <___vfprintf_internal_r+0x1da8>
   21930:	95bff404 	addi	r22,r18,-48
   21934:	0009883a 	mov	r4,zero
   21938:	9d84ff36 	bltu	r19,r22,22d38 <___vfprintf_internal_r+0x1bdc>
   2193c:	01400284 	movi	r5,10
   21940:	0020eb40 	call	20eb4 <__mulsi3>
   21944:	bc800007 	ldb	r18,0(r23)
   21948:	b089883a 	add	r4,r22,r2
   2194c:	bdc00044 	addi	r23,r23,1
   21950:	95bff404 	addi	r22,r18,-48
   21954:	9dbff92e 	bgeu	r19,r22,2193c <___vfprintf_internal_r+0x7e0>
   21958:	2007883a 	mov	r3,r4
   2195c:	20044316 	blt	r4,zero,22a6c <___vfprintf_internal_r+0x1910>
   21960:	b82b883a 	mov	r21,r23
   21964:	003e5a06 	br	212d0 <___vfprintf_internal_r+0x174>
   21968:	ac800007 	ldb	r18,0(r21)
   2196c:	01001b04 	movi	r4,108
   21970:	a805883a 	mov	r2,r21
   21974:	91045526 	beq	r18,r4,22acc <___vfprintf_internal_r+0x1970>
   21978:	84000414 	ori	r16,r16,16
   2197c:	003e5306 	br	212cc <___vfprintf_internal_r+0x170>
   21980:	8080080c 	andi	r2,r16,32
   21984:	e013883a 	mov	r9,fp
   21988:	10034026 	beq	r2,zero,2268c <___vfprintf_internal_r+0x1530>
   2198c:	d9012d17 	ldw	r4,1204(sp)
   21990:	20800017 	ldw	r2,0(r4)
   21994:	d9012c17 	ldw	r4,1200(sp)
   21998:	2007d7fa 	srai	r3,r4,31
   2199c:	d9012d17 	ldw	r4,1204(sp)
   219a0:	10c00115 	stw	r3,4(r2)
   219a4:	21000104 	addi	r4,r4,4
   219a8:	d9012d15 	stw	r4,1204(sp)
   219ac:	d9012c17 	ldw	r4,1200(sp)
   219b0:	11000015 	stw	r4,0(r2)
   219b4:	003e1f06 	br	21234 <___vfprintf_internal_r+0xd8>
   219b8:	d9012d17 	ldw	r4,1204(sp)
   219bc:	21000017 	ldw	r4,0(r4)
   219c0:	d9012e15 	stw	r4,1208(sp)
   219c4:	d9012d17 	ldw	r4,1204(sp)
   219c8:	20800104 	addi	r2,r4,4
   219cc:	d9012e17 	ldw	r4,1208(sp)
   219d0:	203ee716 	blt	r4,zero,21570 <___vfprintf_internal_r+0x414>
   219d4:	d8812d15 	stw	r2,1204(sp)
   219d8:	ac800007 	ldb	r18,0(r21)
   219dc:	003e3b06 	br	212cc <___vfprintf_internal_r+0x170>
   219e0:	e013883a 	mov	r9,fp
   219e4:	1839883a 	mov	fp,r3
   219e8:	d8c12d17 	ldw	r3,1204(sp)
   219ec:	00800c04 	movi	r2,48
   219f0:	010000f4 	movhi	r4,3
   219f4:	21347d04 	addi	r4,r4,-11788
   219f8:	1dc00017 	ldw	r23,0(r3)
   219fc:	18c00104 	addi	r3,r3,4
   21a00:	d8812505 	stb	r2,1172(sp)
   21a04:	00801e04 	movi	r2,120
   21a08:	d8812545 	stb	r2,1173(sp)
   21a0c:	d8c12d15 	stw	r3,1204(sp)
   21a10:	002d883a 	mov	r22,zero
   21a14:	84000094 	ori	r16,r16,2
   21a18:	d9013615 	stw	r4,1240(sp)
   21a1c:	00c00084 	movi	r3,2
   21a20:	04801e04 	movi	r18,120
   21a24:	b805883a 	mov	r2,r23
   21a28:	d8012585 	stb	zero,1174(sp)
   21a2c:	003f4406 	br	21740 <___vfprintf_internal_r+0x5e4>
   21a30:	84000814 	ori	r16,r16,32
   21a34:	ac800007 	ldb	r18,0(r21)
   21a38:	003e2406 	br	212cc <___vfprintf_internal_r+0x170>
   21a3c:	d8812d17 	ldw	r2,1204(sp)
   21a40:	d8012585 	stb	zero,1174(sp)
   21a44:	e013883a 	mov	r9,fp
   21a48:	14c00017 	ldw	r19,0(r2)
   21a4c:	1839883a 	mov	fp,r3
   21a50:	15c00104 	addi	r23,r2,4
   21a54:	98045526 	beq	r19,zero,22bac <___vfprintf_internal_r+0x1a50>
   21a58:	9809883a 	mov	r4,r19
   21a5c:	18043116 	blt	r3,zero,22b24 <___vfprintf_internal_r+0x19c8>
   21a60:	000b883a 	mov	r5,zero
   21a64:	180d883a 	mov	r6,r3
   21a68:	da413c15 	stw	r9,1264(sp)
   21a6c:	00264c40 	call	264c4 <memchr>
   21a70:	da413c17 	ldw	r9,1264(sp)
   21a74:	10047a26 	beq	r2,zero,22c60 <___vfprintf_internal_r+0x1b04>
   21a78:	14c5c83a 	sub	r2,r2,r19
   21a7c:	d8812b15 	stw	r2,1196(sp)
   21a80:	e083d40e 	bge	fp,r2,229d4 <___vfprintf_internal_r+0x1878>
   21a84:	df012815 	stw	fp,1184(sp)
   21a88:	e004e416 	blt	fp,zero,22e1c <___vfprintf_internal_r+0x1cc0>
   21a8c:	d8812583 	ldbu	r2,1174(sp)
   21a90:	df012b15 	stw	fp,1196(sp)
   21a94:	ddc12d15 	stw	r23,1204(sp)
   21a98:	d8013115 	stw	zero,1220(sp)
   21a9c:	003f3c06 	br	21790 <___vfprintf_internal_r+0x634>
   21aa0:	008000f4 	movhi	r2,3
   21aa4:	10b47d04 	addi	r2,r2,-11788
   21aa8:	d8813615 	stw	r2,1240(sp)
   21aac:	8080080c 	andi	r2,r16,32
   21ab0:	e013883a 	mov	r9,fp
   21ab4:	1839883a 	mov	fp,r3
   21ab8:	103f891e 	bne	r2,zero,218e0 <___vfprintf_internal_r+0x784>
   21abc:	8080040c 	andi	r2,r16,16
   21ac0:	1002c326 	beq	r2,zero,225d0 <___vfprintf_internal_r+0x1474>
   21ac4:	d8812d17 	ldw	r2,1204(sp)
   21ac8:	002d883a 	mov	r22,zero
   21acc:	15c00017 	ldw	r23,0(r2)
   21ad0:	10800104 	addi	r2,r2,4
   21ad4:	d8812d15 	stw	r2,1204(sp)
   21ad8:	003f8606 	br	218f4 <___vfprintf_internal_r+0x798>
   21adc:	84001014 	ori	r16,r16,64
   21ae0:	ac800007 	ldb	r18,0(r21)
   21ae4:	003df906 	br	212cc <___vfprintf_internal_r+0x170>
   21ae8:	d8812587 	ldb	r2,1174(sp)
   21aec:	1002e51e 	bne	r2,zero,22684 <___vfprintf_internal_r+0x1528>
   21af0:	00800804 	movi	r2,32
   21af4:	d8812585 	stb	r2,1174(sp)
   21af8:	ac800007 	ldb	r18,0(r21)
   21afc:	003df306 	br	212cc <___vfprintf_internal_r+0x170>
   21b00:	84000054 	ori	r16,r16,1
   21b04:	ac800007 	ldb	r18,0(r21)
   21b08:	003df006 	br	212cc <___vfprintf_internal_r+0x170>
   21b0c:	84002014 	ori	r16,r16,128
   21b10:	ac800007 	ldb	r18,0(r21)
   21b14:	003ded06 	br	212cc <___vfprintf_internal_r+0x170>
   21b18:	0009883a 	mov	r4,zero
   21b1c:	95bff404 	addi	r22,r18,-48
   21b20:	182f883a 	mov	r23,r3
   21b24:	01400284 	movi	r5,10
   21b28:	0020eb40 	call	20eb4 <__mulsi3>
   21b2c:	ac800007 	ldb	r18,0(r21)
   21b30:	1589883a 	add	r4,r2,r22
   21b34:	ad400044 	addi	r21,r21,1
   21b38:	95bff404 	addi	r22,r18,-48
   21b3c:	9dbff92e 	bgeu	r19,r22,21b24 <___vfprintf_internal_r+0x9c8>
   21b40:	b807883a 	mov	r3,r23
   21b44:	d9012e15 	stw	r4,1208(sp)
   21b48:	003de106 	br	212d0 <___vfprintf_internal_r+0x174>
   21b4c:	00800ac4 	movi	r2,43
   21b50:	d8812585 	stb	r2,1174(sp)
   21b54:	ac800007 	ldb	r18,0(r21)
   21b58:	003ddc06 	br	212cc <___vfprintf_internal_r+0x170>
   21b5c:	d8c12d17 	ldw	r3,1204(sp)
   21b60:	d9012d17 	ldw	r4,1204(sp)
   21b64:	e013883a 	mov	r9,fp
   21b68:	18800017 	ldw	r2,0(r3)
   21b6c:	21000104 	addi	r4,r4,4
   21b70:	00c00044 	movi	r3,1
   21b74:	d8c12815 	stw	r3,1184(sp)
   21b78:	d8012585 	stb	zero,1174(sp)
   21b7c:	d8810405 	stb	r2,1040(sp)
   21b80:	d9012d15 	stw	r4,1204(sp)
   21b84:	d8c12b15 	stw	r3,1196(sp)
   21b88:	dcc10404 	addi	r19,sp,1040
   21b8c:	003dda06 	br	212f8 <___vfprintf_internal_r+0x19c>
   21b90:	e013883a 	mov	r9,fp
   21b94:	1839883a 	mov	fp,r3
   21b98:	003ed806 	br	216fc <___vfprintf_internal_r+0x5a0>
   21b9c:	e013883a 	mov	r9,fp
   21ba0:	1839883a 	mov	fp,r3
   21ba4:	003f2d06 	br	2185c <___vfprintf_internal_r+0x700>
   21ba8:	e013883a 	mov	r9,fp
   21bac:	1839883a 	mov	fp,r3
   21bb0:	003f3806 	br	21894 <___vfprintf_internal_r+0x738>
   21bb4:	da011d17 	ldw	r8,1140(sp)
   21bb8:	d8c11c17 	ldw	r3,1136(sp)
   21bbc:	d8812587 	ldb	r2,1174(sp)
   21bc0:	10000b26 	beq	r2,zero,21bf0 <___vfprintf_internal_r+0xa94>
   21bc4:	d8812584 	addi	r2,sp,1174
   21bc8:	48800015 	stw	r2,0(r9)
   21bcc:	00800044 	movi	r2,1
   21bd0:	48800115 	stw	r2,4(r9)
   21bd4:	4091883a 	add	r8,r8,r2
   21bd8:	1887883a 	add	r3,r3,r2
   21bdc:	da011d15 	stw	r8,1140(sp)
   21be0:	d8c11c15 	stw	r3,1136(sp)
   21be4:	008001c4 	movi	r2,7
   21be8:	10c18e16 	blt	r2,r3,22224 <___vfprintf_internal_r+0x10c8>
   21bec:	4a400204 	addi	r9,r9,8
   21bf0:	d9012a17 	ldw	r4,1192(sp)
   21bf4:	20000b26 	beq	r4,zero,21c24 <___vfprintf_internal_r+0xac8>
   21bf8:	d8812504 	addi	r2,sp,1172
   21bfc:	48800015 	stw	r2,0(r9)
   21c00:	00800084 	movi	r2,2
   21c04:	48800115 	stw	r2,4(r9)
   21c08:	4091883a 	add	r8,r8,r2
   21c0c:	18c00044 	addi	r3,r3,1
   21c10:	da011d15 	stw	r8,1140(sp)
   21c14:	d8c11c15 	stw	r3,1136(sp)
   21c18:	008001c4 	movi	r2,7
   21c1c:	10c17816 	blt	r2,r3,22200 <___vfprintf_internal_r+0x10a4>
   21c20:	4a400204 	addi	r9,r9,8
   21c24:	d9012f17 	ldw	r4,1212(sp)
   21c28:	00802004 	movi	r2,128
   21c2c:	2080fc26 	beq	r4,r2,22020 <___vfprintf_internal_r+0xec4>
   21c30:	d8813117 	ldw	r2,1220(sp)
   21c34:	d9012b17 	ldw	r4,1196(sp)
   21c38:	112fc83a 	sub	r23,r2,r4
   21c3c:	05c02a0e 	bge	zero,r23,21ce8 <___vfprintf_internal_r+0xb8c>
   21c40:	07000404 	movi	fp,16
   21c44:	050000f4 	movhi	r20,3
   21c48:	a5348884 	addi	r20,r20,-11742
   21c4c:	e5c01d0e 	bge	fp,r23,21cc4 <___vfprintf_internal_r+0xb68>
   21c50:	dc812a15 	stw	r18,1192(sp)
   21c54:	058001c4 	movi	r22,7
   21c58:	a025883a 	mov	r18,r20
   21c5c:	8029883a 	mov	r20,r16
   21c60:	dc012917 	ldw	r16,1188(sp)
   21c64:	00000306 	br	21c74 <___vfprintf_internal_r+0xb18>
   21c68:	bdfffc04 	addi	r23,r23,-16
   21c6c:	4a400204 	addi	r9,r9,8
   21c70:	e5c0110e 	bge	fp,r23,21cb8 <___vfprintf_internal_r+0xb5c>
   21c74:	4c800015 	stw	r18,0(r9)
   21c78:	4f000115 	stw	fp,4(r9)
   21c7c:	42000404 	addi	r8,r8,16
   21c80:	18c00044 	addi	r3,r3,1
   21c84:	da011d15 	stw	r8,1140(sp)
   21c88:	d8c11c15 	stw	r3,1136(sp)
   21c8c:	b0fff60e 	bge	r22,r3,21c68 <___vfprintf_internal_r+0xb0c>
   21c90:	8809883a 	mov	r4,r17
   21c94:	800b883a 	mov	r5,r16
   21c98:	d9811b04 	addi	r6,sp,1132
   21c9c:	00211280 	call	21128 <__sprint_r>
   21ca0:	103e741e 	bne	r2,zero,21674 <___vfprintf_internal_r+0x518>
   21ca4:	bdfffc04 	addi	r23,r23,-16
   21ca8:	da011d17 	ldw	r8,1140(sp)
   21cac:	d8c11c17 	ldw	r3,1136(sp)
   21cb0:	da400404 	addi	r9,sp,16
   21cb4:	e5ffef16 	blt	fp,r23,21c74 <___vfprintf_internal_r+0xb18>
   21cb8:	a021883a 	mov	r16,r20
   21cbc:	9029883a 	mov	r20,r18
   21cc0:	dc812a17 	ldw	r18,1192(sp)
   21cc4:	4d000015 	stw	r20,0(r9)
   21cc8:	4dc00115 	stw	r23,4(r9)
   21ccc:	45d1883a 	add	r8,r8,r23
   21cd0:	18c00044 	addi	r3,r3,1
   21cd4:	da011d15 	stw	r8,1140(sp)
   21cd8:	d8c11c15 	stw	r3,1136(sp)
   21cdc:	008001c4 	movi	r2,7
   21ce0:	10c13e16 	blt	r2,r3,221dc <___vfprintf_internal_r+0x1080>
   21ce4:	4a400204 	addi	r9,r9,8
   21ce8:	8080400c 	andi	r2,r16,256
   21cec:	1000831e 	bne	r2,zero,21efc <___vfprintf_internal_r+0xda0>
   21cf0:	d8812b17 	ldw	r2,1196(sp)
   21cf4:	4cc00015 	stw	r19,0(r9)
   21cf8:	48800115 	stw	r2,4(r9)
   21cfc:	4091883a 	add	r8,r8,r2
   21d00:	18c00044 	addi	r3,r3,1
   21d04:	da011d15 	stw	r8,1140(sp)
   21d08:	d8c11c15 	stw	r3,1136(sp)
   21d0c:	008001c4 	movi	r2,7
   21d10:	10c05316 	blt	r2,r3,21e60 <___vfprintf_internal_r+0xd04>
   21d14:	4a400204 	addi	r9,r9,8
   21d18:	8400010c 	andi	r16,r16,4
   21d1c:	80002e26 	beq	r16,zero,21dd8 <___vfprintf_internal_r+0xc7c>
   21d20:	d8812e17 	ldw	r2,1208(sp)
   21d24:	d8c12817 	ldw	r3,1184(sp)
   21d28:	10e1c83a 	sub	r16,r2,r3
   21d2c:	04002a0e 	bge	zero,r16,21dd8 <___vfprintf_internal_r+0xc7c>
   21d30:	04800404 	movi	r18,16
   21d34:	d8c11c17 	ldw	r3,1136(sp)
   21d38:	05c000f4 	movhi	r23,3
   21d3c:	bdf48484 	addi	r23,r23,-11758
   21d40:	9400170e 	bge	r18,r16,21da0 <___vfprintf_internal_r+0xc44>
   21d44:	04c001c4 	movi	r19,7
   21d48:	dd012917 	ldw	r20,1188(sp)
   21d4c:	00000306 	br	21d5c <___vfprintf_internal_r+0xc00>
   21d50:	843ffc04 	addi	r16,r16,-16
   21d54:	4a400204 	addi	r9,r9,8
   21d58:	9400110e 	bge	r18,r16,21da0 <___vfprintf_internal_r+0xc44>
   21d5c:	4dc00015 	stw	r23,0(r9)
   21d60:	4c800115 	stw	r18,4(r9)
   21d64:	42000404 	addi	r8,r8,16
   21d68:	18c00044 	addi	r3,r3,1
   21d6c:	da011d15 	stw	r8,1140(sp)
   21d70:	d8c11c15 	stw	r3,1136(sp)
   21d74:	98fff60e 	bge	r19,r3,21d50 <___vfprintf_internal_r+0xbf4>
   21d78:	8809883a 	mov	r4,r17
   21d7c:	a00b883a 	mov	r5,r20
   21d80:	d9811b04 	addi	r6,sp,1132
   21d84:	00211280 	call	21128 <__sprint_r>
   21d88:	103e3a1e 	bne	r2,zero,21674 <___vfprintf_internal_r+0x518>
   21d8c:	843ffc04 	addi	r16,r16,-16
   21d90:	da011d17 	ldw	r8,1140(sp)
   21d94:	d8c11c17 	ldw	r3,1136(sp)
   21d98:	da400404 	addi	r9,sp,16
   21d9c:	943fef16 	blt	r18,r16,21d5c <___vfprintf_internal_r+0xc00>
   21da0:	4dc00015 	stw	r23,0(r9)
   21da4:	4c000115 	stw	r16,4(r9)
   21da8:	8211883a 	add	r8,r16,r8
   21dac:	18c00044 	addi	r3,r3,1
   21db0:	da011d15 	stw	r8,1140(sp)
   21db4:	d8c11c15 	stw	r3,1136(sp)
   21db8:	008001c4 	movi	r2,7
   21dbc:	10c0060e 	bge	r2,r3,21dd8 <___vfprintf_internal_r+0xc7c>
   21dc0:	d9412917 	ldw	r5,1188(sp)
   21dc4:	8809883a 	mov	r4,r17
   21dc8:	d9811b04 	addi	r6,sp,1132
   21dcc:	00211280 	call	21128 <__sprint_r>
   21dd0:	103e281e 	bne	r2,zero,21674 <___vfprintf_internal_r+0x518>
   21dd4:	da011d17 	ldw	r8,1140(sp)
   21dd8:	dd012817 	ldw	r20,1184(sp)
   21ddc:	d9012e17 	ldw	r4,1208(sp)
   21de0:	a100010e 	bge	r20,r4,21de8 <___vfprintf_internal_r+0xc8c>
   21de4:	2029883a 	mov	r20,r4
   21de8:	d8812c17 	ldw	r2,1200(sp)
   21dec:	1505883a 	add	r2,r2,r20
   21df0:	d8812c15 	stw	r2,1200(sp)
   21df4:	4000b91e 	bne	r8,zero,220dc <___vfprintf_internal_r+0xf80>
   21df8:	d8011c15 	stw	zero,1136(sp)
   21dfc:	a8800007 	ldb	r2,0(r21)
   21e00:	da400404 	addi	r9,sp,16
   21e04:	103d0d1e 	bne	r2,zero,2123c <___vfprintf_internal_r+0xe0>
   21e08:	a825883a 	mov	r18,r21
   21e0c:	003d2306 	br	2129c <___vfprintf_internal_r+0x140>
   21e10:	d9412917 	ldw	r5,1188(sp)
   21e14:	8809883a 	mov	r4,r17
   21e18:	d9811b04 	addi	r6,sp,1132
   21e1c:	00211280 	call	21128 <__sprint_r>
   21e20:	103e141e 	bne	r2,zero,21674 <___vfprintf_internal_r+0x518>
   21e24:	da011d17 	ldw	r8,1140(sp)
   21e28:	da400404 	addi	r9,sp,16
   21e2c:	8080004c 	andi	r2,r16,1
   21e30:	103fb926 	beq	r2,zero,21d18 <___vfprintf_internal_r+0xbbc>
   21e34:	d8c11c17 	ldw	r3,1136(sp)
   21e38:	d9013717 	ldw	r4,1244(sp)
   21e3c:	00800044 	movi	r2,1
   21e40:	48800115 	stw	r2,4(r9)
   21e44:	49000015 	stw	r4,0(r9)
   21e48:	4091883a 	add	r8,r8,r2
   21e4c:	1887883a 	add	r3,r3,r2
   21e50:	da011d15 	stw	r8,1140(sp)
   21e54:	d8c11c15 	stw	r3,1136(sp)
   21e58:	008001c4 	movi	r2,7
   21e5c:	10ffad0e 	bge	r2,r3,21d14 <___vfprintf_internal_r+0xbb8>
   21e60:	d9412917 	ldw	r5,1188(sp)
   21e64:	8809883a 	mov	r4,r17
   21e68:	d9811b04 	addi	r6,sp,1132
   21e6c:	00211280 	call	21128 <__sprint_r>
   21e70:	103e001e 	bne	r2,zero,21674 <___vfprintf_internal_r+0x518>
   21e74:	da400404 	addi	r9,sp,16
   21e78:	da011d17 	ldw	r8,1140(sp)
   21e7c:	003fa606 	br	21d18 <___vfprintf_internal_r+0xbbc>
   21e80:	18803fcc 	andi	r2,r3,255
   21e84:	00c00044 	movi	r3,1
   21e88:	10c10126 	beq	r2,r3,22290 <___vfprintf_internal_r+0x1134>
   21e8c:	00c00084 	movi	r3,2
   21e90:	10c0ed26 	beq	r2,r3,22248 <___vfprintf_internal_r+0x10ec>
   21e94:	d8c10dc4 	addi	r3,sp,1079
   21e98:	b808d0fa 	srli	r4,r23,3
   21e9c:	b00a977a 	slli	r5,r22,29
   21ea0:	b02cd0fa 	srli	r22,r22,3
   21ea4:	bdc001cc 	andi	r23,r23,7
   21ea8:	b8800c04 	addi	r2,r23,48
   21eac:	292eb03a 	or	r23,r5,r4
   21eb0:	18800005 	stb	r2,0(r3)
   21eb4:	bd88b03a 	or	r4,r23,r22
   21eb8:	1827883a 	mov	r19,r3
   21ebc:	18ffffc4 	addi	r3,r3,-1
   21ec0:	203ff51e 	bne	r4,zero,21e98 <___vfprintf_internal_r+0xd3c>
   21ec4:	8100004c 	andi	r4,r16,1
   21ec8:	980b883a 	mov	r5,r19
   21ecc:	20000726 	beq	r4,zero,21eec <___vfprintf_internal_r+0xd90>
   21ed0:	10803fcc 	andi	r2,r2,255
   21ed4:	1080201c 	xori	r2,r2,128
   21ed8:	10bfe004 	addi	r2,r2,-128
   21edc:	01000c04 	movi	r4,48
   21ee0:	11000226 	beq	r2,r4,21eec <___vfprintf_internal_r+0xd90>
   21ee4:	1827883a 	mov	r19,r3
   21ee8:	293fffc5 	stb	r4,-1(r5)
   21eec:	d8812717 	ldw	r2,1180(sp)
   21ef0:	14c5c83a 	sub	r2,r2,r19
   21ef4:	d8812b15 	stw	r2,1196(sp)
   21ef8:	003e1f06 	br	21778 <___vfprintf_internal_r+0x61c>
   21efc:	00801944 	movi	r2,101
   21f00:	14807c0e 	bge	r2,r18,220f4 <___vfprintf_internal_r+0xf98>
   21f04:	d9013317 	ldw	r4,1228(sp)
   21f08:	d9413417 	ldw	r5,1232(sp)
   21f0c:	000d883a 	mov	r6,zero
   21f10:	000f883a 	mov	r7,zero
   21f14:	d8c13b15 	stw	r3,1260(sp)
   21f18:	da013a15 	stw	r8,1256(sp)
   21f1c:	da413c15 	stw	r9,1264(sp)
   21f20:	0029c040 	call	29c04 <__eqdf2>
   21f24:	d8c13b17 	ldw	r3,1260(sp)
   21f28:	da013a17 	ldw	r8,1256(sp)
   21f2c:	da413c17 	ldw	r9,1264(sp)
   21f30:	1001001e 	bne	r2,zero,22334 <___vfprintf_internal_r+0x11d8>
   21f34:	008000f4 	movhi	r2,3
   21f38:	10b48404 	addi	r2,r2,-11760
   21f3c:	48800015 	stw	r2,0(r9)
   21f40:	00800044 	movi	r2,1
   21f44:	48800115 	stw	r2,4(r9)
   21f48:	4091883a 	add	r8,r8,r2
   21f4c:	1887883a 	add	r3,r3,r2
   21f50:	da011d15 	stw	r8,1140(sp)
   21f54:	d8c11c15 	stw	r3,1136(sp)
   21f58:	008001c4 	movi	r2,7
   21f5c:	10c20316 	blt	r2,r3,2276c <___vfprintf_internal_r+0x1610>
   21f60:	4a400204 	addi	r9,r9,8
   21f64:	d8812417 	ldw	r2,1168(sp)
   21f68:	d8c13217 	ldw	r3,1224(sp)
   21f6c:	10c00216 	blt	r2,r3,21f78 <___vfprintf_internal_r+0xe1c>
   21f70:	8080004c 	andi	r2,r16,1
   21f74:	103f6826 	beq	r2,zero,21d18 <___vfprintf_internal_r+0xbbc>
   21f78:	d8c11c17 	ldw	r3,1136(sp)
   21f7c:	d9013717 	ldw	r4,1244(sp)
   21f80:	00800044 	movi	r2,1
   21f84:	48800115 	stw	r2,4(r9)
   21f88:	49000015 	stw	r4,0(r9)
   21f8c:	4091883a 	add	r8,r8,r2
   21f90:	1887883a 	add	r3,r3,r2
   21f94:	da011d15 	stw	r8,1140(sp)
   21f98:	d8c11c15 	stw	r3,1136(sp)
   21f9c:	008001c4 	movi	r2,7
   21fa0:	10c2ce16 	blt	r2,r3,22adc <___vfprintf_internal_r+0x1980>
   21fa4:	4a400204 	addi	r9,r9,8
   21fa8:	d8813217 	ldw	r2,1224(sp)
   21fac:	14bfffc4 	addi	r18,r2,-1
   21fb0:	04bf590e 	bge	zero,r18,21d18 <___vfprintf_internal_r+0xbbc>
   21fb4:	04c00404 	movi	r19,16
   21fb8:	d8c11c17 	ldw	r3,1136(sp)
   21fbc:	050000f4 	movhi	r20,3
   21fc0:	a5348884 	addi	r20,r20,-11742
   21fc4:	9c818a0e 	bge	r19,r18,225f0 <___vfprintf_internal_r+0x1494>
   21fc8:	058001c4 	movi	r22,7
   21fcc:	ddc12917 	ldw	r23,1188(sp)
   21fd0:	00000306 	br	21fe0 <___vfprintf_internal_r+0xe84>
   21fd4:	4a400204 	addi	r9,r9,8
   21fd8:	94bffc04 	addi	r18,r18,-16
   21fdc:	9c81840e 	bge	r19,r18,225f0 <___vfprintf_internal_r+0x1494>
   21fe0:	4d000015 	stw	r20,0(r9)
   21fe4:	4cc00115 	stw	r19,4(r9)
   21fe8:	42000404 	addi	r8,r8,16
   21fec:	18c00044 	addi	r3,r3,1
   21ff0:	da011d15 	stw	r8,1140(sp)
   21ff4:	d8c11c15 	stw	r3,1136(sp)
   21ff8:	b0fff60e 	bge	r22,r3,21fd4 <___vfprintf_internal_r+0xe78>
   21ffc:	8809883a 	mov	r4,r17
   22000:	b80b883a 	mov	r5,r23
   22004:	d9811b04 	addi	r6,sp,1132
   22008:	00211280 	call	21128 <__sprint_r>
   2200c:	103d991e 	bne	r2,zero,21674 <___vfprintf_internal_r+0x518>
   22010:	da011d17 	ldw	r8,1140(sp)
   22014:	d8c11c17 	ldw	r3,1136(sp)
   22018:	da400404 	addi	r9,sp,16
   2201c:	003fee06 	br	21fd8 <___vfprintf_internal_r+0xe7c>
   22020:	d8812e17 	ldw	r2,1208(sp)
   22024:	d9012817 	ldw	r4,1184(sp)
   22028:	112fc83a 	sub	r23,r2,r4
   2202c:	05ff000e 	bge	zero,r23,21c30 <___vfprintf_internal_r+0xad4>
   22030:	07000404 	movi	fp,16
   22034:	050000f4 	movhi	r20,3
   22038:	a5348884 	addi	r20,r20,-11742
   2203c:	e5c01d0e 	bge	fp,r23,220b4 <___vfprintf_internal_r+0xf58>
   22040:	dc812a15 	stw	r18,1192(sp)
   22044:	058001c4 	movi	r22,7
   22048:	a025883a 	mov	r18,r20
   2204c:	8029883a 	mov	r20,r16
   22050:	dc012917 	ldw	r16,1188(sp)
   22054:	00000306 	br	22064 <___vfprintf_internal_r+0xf08>
   22058:	bdfffc04 	addi	r23,r23,-16
   2205c:	4a400204 	addi	r9,r9,8
   22060:	e5c0110e 	bge	fp,r23,220a8 <___vfprintf_internal_r+0xf4c>
   22064:	4c800015 	stw	r18,0(r9)
   22068:	4f000115 	stw	fp,4(r9)
   2206c:	42000404 	addi	r8,r8,16
   22070:	18c00044 	addi	r3,r3,1
   22074:	da011d15 	stw	r8,1140(sp)
   22078:	d8c11c15 	stw	r3,1136(sp)
   2207c:	b0fff60e 	bge	r22,r3,22058 <___vfprintf_internal_r+0xefc>
   22080:	8809883a 	mov	r4,r17
   22084:	800b883a 	mov	r5,r16
   22088:	d9811b04 	addi	r6,sp,1132
   2208c:	00211280 	call	21128 <__sprint_r>
   22090:	103d781e 	bne	r2,zero,21674 <___vfprintf_internal_r+0x518>
   22094:	bdfffc04 	addi	r23,r23,-16
   22098:	da011d17 	ldw	r8,1140(sp)
   2209c:	d8c11c17 	ldw	r3,1136(sp)
   220a0:	da400404 	addi	r9,sp,16
   220a4:	e5ffef16 	blt	fp,r23,22064 <___vfprintf_internal_r+0xf08>
   220a8:	a021883a 	mov	r16,r20
   220ac:	9029883a 	mov	r20,r18
   220b0:	dc812a17 	ldw	r18,1192(sp)
   220b4:	4d000015 	stw	r20,0(r9)
   220b8:	4dc00115 	stw	r23,4(r9)
   220bc:	45d1883a 	add	r8,r8,r23
   220c0:	18c00044 	addi	r3,r3,1
   220c4:	da011d15 	stw	r8,1140(sp)
   220c8:	d8c11c15 	stw	r3,1136(sp)
   220cc:	008001c4 	movi	r2,7
   220d0:	10c13616 	blt	r2,r3,225ac <___vfprintf_internal_r+0x1450>
   220d4:	4a400204 	addi	r9,r9,8
   220d8:	003ed506 	br	21c30 <___vfprintf_internal_r+0xad4>
   220dc:	d9412917 	ldw	r5,1188(sp)
   220e0:	8809883a 	mov	r4,r17
   220e4:	d9811b04 	addi	r6,sp,1132
   220e8:	00211280 	call	21128 <__sprint_r>
   220ec:	103f4226 	beq	r2,zero,21df8 <___vfprintf_internal_r+0xc9c>
   220f0:	003d6006 	br	21674 <___vfprintf_internal_r+0x518>
   220f4:	d9013217 	ldw	r4,1224(sp)
   220f8:	00800044 	movi	r2,1
   220fc:	4cc00015 	stw	r19,0(r9)
   22100:	1101000e 	bge	r2,r4,22504 <___vfprintf_internal_r+0x13a8>
   22104:	00800044 	movi	r2,1
   22108:	48800115 	stw	r2,4(r9)
   2210c:	4091883a 	add	r8,r8,r2
   22110:	1887883a 	add	r3,r3,r2
   22114:	da011d15 	stw	r8,1140(sp)
   22118:	d8c11c15 	stw	r3,1136(sp)
   2211c:	008001c4 	movi	r2,7
   22120:	10c10c16 	blt	r2,r3,22554 <___vfprintf_internal_r+0x13f8>
   22124:	4a400204 	addi	r9,r9,8
   22128:	d8813717 	ldw	r2,1244(sp)
   2212c:	48800015 	stw	r2,0(r9)
   22130:	00800044 	movi	r2,1
   22134:	48800115 	stw	r2,4(r9)
   22138:	4091883a 	add	r8,r8,r2
   2213c:	1887883a 	add	r3,r3,r2
   22140:	da011d15 	stw	r8,1140(sp)
   22144:	d8c11c15 	stw	r3,1136(sp)
   22148:	008001c4 	movi	r2,7
   2214c:	10c10a16 	blt	r2,r3,22578 <___vfprintf_internal_r+0x141c>
   22150:	4c800204 	addi	r18,r9,8
   22154:	d9013317 	ldw	r4,1228(sp)
   22158:	d9413417 	ldw	r5,1232(sp)
   2215c:	000d883a 	mov	r6,zero
   22160:	000f883a 	mov	r7,zero
   22164:	d8c13b15 	stw	r3,1260(sp)
   22168:	da013a15 	stw	r8,1256(sp)
   2216c:	0029c600 	call	29c60 <__nedf2>
   22170:	d8c13b17 	ldw	r3,1260(sp)
   22174:	da013a17 	ldw	r8,1256(sp)
   22178:	1000ba26 	beq	r2,zero,22464 <___vfprintf_internal_r+0x1308>
   2217c:	d9013217 	ldw	r4,1224(sp)
   22180:	9cc00044 	addi	r19,r19,1
   22184:	94c00015 	stw	r19,0(r18)
   22188:	20bfffc4 	addi	r2,r4,-1
   2218c:	90800115 	stw	r2,4(r18)
   22190:	4091883a 	add	r8,r8,r2
   22194:	18c00044 	addi	r3,r3,1
   22198:	da011d15 	stw	r8,1140(sp)
   2219c:	d8c11c15 	stw	r3,1136(sp)
   221a0:	008001c4 	movi	r2,7
   221a4:	10c0e216 	blt	r2,r3,22530 <___vfprintf_internal_r+0x13d4>
   221a8:	94800204 	addi	r18,r18,8
   221ac:	d9013517 	ldw	r4,1236(sp)
   221b0:	d8811fc4 	addi	r2,sp,1151
   221b4:	90800015 	stw	r2,0(r18)
   221b8:	91000115 	stw	r4,4(r18)
   221bc:	4111883a 	add	r8,r8,r4
   221c0:	18c00044 	addi	r3,r3,1
   221c4:	da011d15 	stw	r8,1140(sp)
   221c8:	d8c11c15 	stw	r3,1136(sp)
   221cc:	008001c4 	movi	r2,7
   221d0:	10ff2316 	blt	r2,r3,21e60 <___vfprintf_internal_r+0xd04>
   221d4:	92400204 	addi	r9,r18,8
   221d8:	003ecf06 	br	21d18 <___vfprintf_internal_r+0xbbc>
   221dc:	d9412917 	ldw	r5,1188(sp)
   221e0:	8809883a 	mov	r4,r17
   221e4:	d9811b04 	addi	r6,sp,1132
   221e8:	00211280 	call	21128 <__sprint_r>
   221ec:	103d211e 	bne	r2,zero,21674 <___vfprintf_internal_r+0x518>
   221f0:	da011d17 	ldw	r8,1140(sp)
   221f4:	d8c11c17 	ldw	r3,1136(sp)
   221f8:	da400404 	addi	r9,sp,16
   221fc:	003eba06 	br	21ce8 <___vfprintf_internal_r+0xb8c>
   22200:	d9412917 	ldw	r5,1188(sp)
   22204:	8809883a 	mov	r4,r17
   22208:	d9811b04 	addi	r6,sp,1132
   2220c:	00211280 	call	21128 <__sprint_r>
   22210:	103d181e 	bne	r2,zero,21674 <___vfprintf_internal_r+0x518>
   22214:	da011d17 	ldw	r8,1140(sp)
   22218:	d8c11c17 	ldw	r3,1136(sp)
   2221c:	da400404 	addi	r9,sp,16
   22220:	003e8006 	br	21c24 <___vfprintf_internal_r+0xac8>
   22224:	d9412917 	ldw	r5,1188(sp)
   22228:	8809883a 	mov	r4,r17
   2222c:	d9811b04 	addi	r6,sp,1132
   22230:	00211280 	call	21128 <__sprint_r>
   22234:	103d0f1e 	bne	r2,zero,21674 <___vfprintf_internal_r+0x518>
   22238:	da011d17 	ldw	r8,1140(sp)
   2223c:	d8c11c17 	ldw	r3,1136(sp)
   22240:	da400404 	addi	r9,sp,16
   22244:	003e6a06 	br	21bf0 <___vfprintf_internal_r+0xa94>
   22248:	d9413617 	ldw	r5,1240(sp)
   2224c:	d8810dc4 	addi	r2,sp,1079
   22250:	b8c003cc 	andi	r3,r23,15
   22254:	b008973a 	slli	r4,r22,28
   22258:	28c7883a 	add	r3,r5,r3
   2225c:	b82ed13a 	srli	r23,r23,4
   22260:	18c00003 	ldbu	r3,0(r3)
   22264:	b02cd13a 	srli	r22,r22,4
   22268:	25eeb03a 	or	r23,r4,r23
   2226c:	10c00005 	stb	r3,0(r2)
   22270:	bd86b03a 	or	r3,r23,r22
   22274:	1027883a 	mov	r19,r2
   22278:	10bfffc4 	addi	r2,r2,-1
   2227c:	183ff41e 	bne	r3,zero,22250 <___vfprintf_internal_r+0x10f4>
   22280:	003f1a06 	br	21eec <___vfprintf_internal_r+0xd90>
   22284:	d8012b15 	stw	zero,1196(sp)
   22288:	dcc10e04 	addi	r19,sp,1080
   2228c:	003d3a06 	br	21778 <___vfprintf_internal_r+0x61c>
   22290:	b0025426 	beq	r22,zero,22be4 <___vfprintf_internal_r+0x1a88>
   22294:	b807883a 	mov	r3,r23
   22298:	d8810dc4 	addi	r2,sp,1079
   2229c:	882f883a 	mov	r23,r17
   222a0:	04c00244 	movi	r19,9
   222a4:	8023883a 	mov	r17,r16
   222a8:	da412815 	stw	r9,1184(sp)
   222ac:	1821883a 	mov	r16,r3
   222b0:	8009883a 	mov	r4,r16
   222b4:	b00b883a 	mov	r5,r22
   222b8:	01800284 	movi	r6,10
   222bc:	000f883a 	mov	r7,zero
   222c0:	1029883a 	mov	r20,r2
   222c4:	0028d3c0 	call	28d3c <__umoddi3>
   222c8:	10800c04 	addi	r2,r2,48
   222cc:	8009883a 	mov	r4,r16
   222d0:	b00b883a 	mov	r5,r22
   222d4:	a0800005 	stb	r2,0(r20)
   222d8:	01800284 	movi	r6,10
   222dc:	000f883a 	mov	r7,zero
   222e0:	00286ec0 	call	286ec <__udivdi3>
   222e4:	1021883a 	mov	r16,r2
   222e8:	182d883a 	mov	r22,r3
   222ec:	a0bfffc4 	addi	r2,r20,-1
   222f0:	183fef1e 	bne	r3,zero,222b0 <___vfprintf_internal_r+0x1154>
   222f4:	9c3fee36 	bltu	r19,r16,222b0 <___vfprintf_internal_r+0x1154>
   222f8:	da412817 	ldw	r9,1184(sp)
   222fc:	8005883a 	mov	r2,r16
   22300:	8821883a 	mov	r16,r17
   22304:	b823883a 	mov	r17,r23
   22308:	102f883a 	mov	r23,r2
   2230c:	d8812717 	ldw	r2,1180(sp)
   22310:	a4ffffc4 	addi	r19,r20,-1
   22314:	bdc00c04 	addi	r23,r23,48
   22318:	14c5c83a 	sub	r2,r2,r19
   2231c:	a5ffffc5 	stb	r23,-1(r20)
   22320:	d8812b15 	stw	r2,1196(sp)
   22324:	003d1406 	br	21778 <___vfprintf_internal_r+0x61c>
   22328:	00c00044 	movi	r3,1
   2232c:	bd84b03a 	or	r2,r23,r22
   22330:	003d0306 	br	21740 <___vfprintf_internal_r+0x5e4>
   22334:	dc812417 	ldw	r18,1168(sp)
   22338:	0481140e 	bge	zero,r18,2278c <___vfprintf_internal_r+0x1630>
   2233c:	d9013217 	ldw	r4,1224(sp)
   22340:	4cc00015 	stw	r19,0(r9)
   22344:	9100ec16 	blt	r18,r4,226f8 <___vfprintf_internal_r+0x159c>
   22348:	49000115 	stw	r4,4(r9)
   2234c:	4111883a 	add	r8,r8,r4
   22350:	18c00044 	addi	r3,r3,1
   22354:	da011d15 	stw	r8,1140(sp)
   22358:	d8c11c15 	stw	r3,1136(sp)
   2235c:	008001c4 	movi	r2,7
   22360:	10c23616 	blt	r2,r3,22c3c <___vfprintf_internal_r+0x1ae0>
   22364:	4a400204 	addi	r9,r9,8
   22368:	d8813217 	ldw	r2,1224(sp)
   2236c:	90a5c83a 	sub	r18,r18,r2
   22370:	04beae0e 	bge	zero,r18,21e2c <___vfprintf_internal_r+0xcd0>
   22374:	04c00404 	movi	r19,16
   22378:	d8c11c17 	ldw	r3,1136(sp)
   2237c:	050000f4 	movhi	r20,3
   22380:	a5348884 	addi	r20,r20,-11742
   22384:	9c81dd0e 	bge	r19,r18,22afc <___vfprintf_internal_r+0x19a0>
   22388:	058001c4 	movi	r22,7
   2238c:	ddc12917 	ldw	r23,1188(sp)
   22390:	00000306 	br	223a0 <___vfprintf_internal_r+0x1244>
   22394:	4a400204 	addi	r9,r9,8
   22398:	94bffc04 	addi	r18,r18,-16
   2239c:	9c81d70e 	bge	r19,r18,22afc <___vfprintf_internal_r+0x19a0>
   223a0:	4d000015 	stw	r20,0(r9)
   223a4:	4cc00115 	stw	r19,4(r9)
   223a8:	42000404 	addi	r8,r8,16
   223ac:	18c00044 	addi	r3,r3,1
   223b0:	da011d15 	stw	r8,1140(sp)
   223b4:	d8c11c15 	stw	r3,1136(sp)
   223b8:	b0fff60e 	bge	r22,r3,22394 <___vfprintf_internal_r+0x1238>
   223bc:	8809883a 	mov	r4,r17
   223c0:	b80b883a 	mov	r5,r23
   223c4:	d9811b04 	addi	r6,sp,1132
   223c8:	00211280 	call	21128 <__sprint_r>
   223cc:	103ca91e 	bne	r2,zero,21674 <___vfprintf_internal_r+0x518>
   223d0:	da011d17 	ldw	r8,1140(sp)
   223d4:	d8c11c17 	ldw	r3,1136(sp)
   223d8:	da400404 	addi	r9,sp,16
   223dc:	003fee06 	br	22398 <___vfprintf_internal_r+0x123c>
   223e0:	d9412917 	ldw	r5,1188(sp)
   223e4:	8809883a 	mov	r4,r17
   223e8:	d9811b04 	addi	r6,sp,1132
   223ec:	00211280 	call	21128 <__sprint_r>
   223f0:	103ca01e 	bne	r2,zero,21674 <___vfprintf_internal_r+0x518>
   223f4:	da011d17 	ldw	r8,1140(sp)
   223f8:	d8c11c17 	ldw	r3,1136(sp)
   223fc:	da400404 	addi	r9,sp,16
   22400:	003dee06 	br	21bbc <___vfprintf_internal_r+0xa60>
   22404:	00c00084 	movi	r3,2
   22408:	bd84b03a 	or	r2,r23,r22
   2240c:	d8012585 	stb	zero,1174(sp)
   22410:	003ccb06 	br	21740 <___vfprintf_internal_r+0x5e4>
   22414:	8080040c 	andi	r2,r16,16
   22418:	1000ae26 	beq	r2,zero,226d4 <___vfprintf_internal_r+0x1578>
   2241c:	d9012d17 	ldw	r4,1204(sp)
   22420:	25c00017 	ldw	r23,0(r4)
   22424:	21000104 	addi	r4,r4,4
   22428:	d9012d15 	stw	r4,1204(sp)
   2242c:	b82dd7fa 	srai	r22,r23,31
   22430:	b005883a 	mov	r2,r22
   22434:	003cb906 	br	2171c <___vfprintf_internal_r+0x5c0>
   22438:	8080040c 	andi	r2,r16,16
   2243c:	10007026 	beq	r2,zero,22600 <___vfprintf_internal_r+0x14a4>
   22440:	d8812d17 	ldw	r2,1204(sp)
   22444:	002d883a 	mov	r22,zero
   22448:	00c00044 	movi	r3,1
   2244c:	15c00017 	ldw	r23,0(r2)
   22450:	10800104 	addi	r2,r2,4
   22454:	d8812d15 	stw	r2,1204(sp)
   22458:	d8012585 	stb	zero,1174(sp)
   2245c:	b805883a 	mov	r2,r23
   22460:	003cb706 	br	21740 <___vfprintf_internal_r+0x5e4>
   22464:	d8813217 	ldw	r2,1224(sp)
   22468:	14ffffc4 	addi	r19,r2,-1
   2246c:	04ff4f0e 	bge	zero,r19,221ac <___vfprintf_internal_r+0x1050>
   22470:	05800404 	movi	r22,16
   22474:	050000f4 	movhi	r20,3
   22478:	a5348884 	addi	r20,r20,-11742
   2247c:	b4c0470e 	bge	r22,r19,2259c <___vfprintf_internal_r+0x1440>
   22480:	05c001c4 	movi	r23,7
   22484:	df012917 	ldw	fp,1188(sp)
   22488:	00000306 	br	22498 <___vfprintf_internal_r+0x133c>
   2248c:	94800204 	addi	r18,r18,8
   22490:	9cfffc04 	addi	r19,r19,-16
   22494:	b4c0410e 	bge	r22,r19,2259c <___vfprintf_internal_r+0x1440>
   22498:	95000015 	stw	r20,0(r18)
   2249c:	95800115 	stw	r22,4(r18)
   224a0:	42000404 	addi	r8,r8,16
   224a4:	18c00044 	addi	r3,r3,1
   224a8:	da011d15 	stw	r8,1140(sp)
   224ac:	d8c11c15 	stw	r3,1136(sp)
   224b0:	b8fff60e 	bge	r23,r3,2248c <___vfprintf_internal_r+0x1330>
   224b4:	8809883a 	mov	r4,r17
   224b8:	e00b883a 	mov	r5,fp
   224bc:	d9811b04 	addi	r6,sp,1132
   224c0:	00211280 	call	21128 <__sprint_r>
   224c4:	103c6b1e 	bne	r2,zero,21674 <___vfprintf_internal_r+0x518>
   224c8:	da011d17 	ldw	r8,1140(sp)
   224cc:	d8c11c17 	ldw	r3,1136(sp)
   224d0:	dc800404 	addi	r18,sp,16
   224d4:	003fee06 	br	22490 <___vfprintf_internal_r+0x1334>
   224d8:	8080040c 	andi	r2,r16,16
   224dc:	10005326 	beq	r2,zero,2262c <___vfprintf_internal_r+0x14d0>
   224e0:	d8c12d17 	ldw	r3,1204(sp)
   224e4:	002d883a 	mov	r22,zero
   224e8:	1dc00017 	ldw	r23,0(r3)
   224ec:	18c00104 	addi	r3,r3,4
   224f0:	d8c12d15 	stw	r3,1204(sp)
   224f4:	b805883a 	mov	r2,r23
   224f8:	0007883a 	mov	r3,zero
   224fc:	d8012585 	stb	zero,1174(sp)
   22500:	003c8f06 	br	21740 <___vfprintf_internal_r+0x5e4>
   22504:	8088703a 	and	r4,r16,r2
   22508:	203efe1e 	bne	r4,zero,22104 <___vfprintf_internal_r+0xfa8>
   2250c:	48800115 	stw	r2,4(r9)
   22510:	42000044 	addi	r8,r8,1
   22514:	18c00044 	addi	r3,r3,1
   22518:	da011d15 	stw	r8,1140(sp)
   2251c:	d8c11c15 	stw	r3,1136(sp)
   22520:	008001c4 	movi	r2,7
   22524:	10c00216 	blt	r2,r3,22530 <___vfprintf_internal_r+0x13d4>
   22528:	4c800204 	addi	r18,r9,8
   2252c:	003f1f06 	br	221ac <___vfprintf_internal_r+0x1050>
   22530:	d9412917 	ldw	r5,1188(sp)
   22534:	8809883a 	mov	r4,r17
   22538:	d9811b04 	addi	r6,sp,1132
   2253c:	00211280 	call	21128 <__sprint_r>
   22540:	103c4c1e 	bne	r2,zero,21674 <___vfprintf_internal_r+0x518>
   22544:	dc800404 	addi	r18,sp,16
   22548:	da011d17 	ldw	r8,1140(sp)
   2254c:	d8c11c17 	ldw	r3,1136(sp)
   22550:	003f1606 	br	221ac <___vfprintf_internal_r+0x1050>
   22554:	d9412917 	ldw	r5,1188(sp)
   22558:	8809883a 	mov	r4,r17
   2255c:	d9811b04 	addi	r6,sp,1132
   22560:	00211280 	call	21128 <__sprint_r>
   22564:	103c431e 	bne	r2,zero,21674 <___vfprintf_internal_r+0x518>
   22568:	da011d17 	ldw	r8,1140(sp)
   2256c:	d8c11c17 	ldw	r3,1136(sp)
   22570:	da400404 	addi	r9,sp,16
   22574:	003eec06 	br	22128 <___vfprintf_internal_r+0xfcc>
   22578:	d9412917 	ldw	r5,1188(sp)
   2257c:	8809883a 	mov	r4,r17
   22580:	d9811b04 	addi	r6,sp,1132
   22584:	00211280 	call	21128 <__sprint_r>
   22588:	103c3a1e 	bne	r2,zero,21674 <___vfprintf_internal_r+0x518>
   2258c:	da011d17 	ldw	r8,1140(sp)
   22590:	d8c11c17 	ldw	r3,1136(sp)
   22594:	dc800404 	addi	r18,sp,16
   22598:	003eee06 	br	22154 <___vfprintf_internal_r+0xff8>
   2259c:	95000015 	stw	r20,0(r18)
   225a0:	94c00115 	stw	r19,4(r18)
   225a4:	44d1883a 	add	r8,r8,r19
   225a8:	003efa06 	br	22194 <___vfprintf_internal_r+0x1038>
   225ac:	d9412917 	ldw	r5,1188(sp)
   225b0:	8809883a 	mov	r4,r17
   225b4:	d9811b04 	addi	r6,sp,1132
   225b8:	00211280 	call	21128 <__sprint_r>
   225bc:	103c2d1e 	bne	r2,zero,21674 <___vfprintf_internal_r+0x518>
   225c0:	da011d17 	ldw	r8,1140(sp)
   225c4:	d8c11c17 	ldw	r3,1136(sp)
   225c8:	da400404 	addi	r9,sp,16
   225cc:	003d9806 	br	21c30 <___vfprintf_internal_r+0xad4>
   225d0:	8080100c 	andi	r2,r16,64
   225d4:	10011626 	beq	r2,zero,22a30 <___vfprintf_internal_r+0x18d4>
   225d8:	d8c12d17 	ldw	r3,1204(sp)
   225dc:	002d883a 	mov	r22,zero
   225e0:	1dc0000b 	ldhu	r23,0(r3)
   225e4:	18c00104 	addi	r3,r3,4
   225e8:	d8c12d15 	stw	r3,1204(sp)
   225ec:	003cc106 	br	218f4 <___vfprintf_internal_r+0x798>
   225f0:	4d000015 	stw	r20,0(r9)
   225f4:	4c800115 	stw	r18,4(r9)
   225f8:	4491883a 	add	r8,r8,r18
   225fc:	003dc006 	br	21d00 <___vfprintf_internal_r+0xba4>
   22600:	8080100c 	andi	r2,r16,64
   22604:	10010126 	beq	r2,zero,22a0c <___vfprintf_internal_r+0x18b0>
   22608:	d8c12d17 	ldw	r3,1204(sp)
   2260c:	002d883a 	mov	r22,zero
   22610:	1dc0000b 	ldhu	r23,0(r3)
   22614:	18c00104 	addi	r3,r3,4
   22618:	d8c12d15 	stw	r3,1204(sp)
   2261c:	b805883a 	mov	r2,r23
   22620:	00c00044 	movi	r3,1
   22624:	d8012585 	stb	zero,1174(sp)
   22628:	003c4506 	br	21740 <___vfprintf_internal_r+0x5e4>
   2262c:	8080100c 	andi	r2,r16,64
   22630:	10010526 	beq	r2,zero,22a48 <___vfprintf_internal_r+0x18ec>
   22634:	d9012d17 	ldw	r4,1204(sp)
   22638:	002d883a 	mov	r22,zero
   2263c:	0007883a 	mov	r3,zero
   22640:	25c0000b 	ldhu	r23,0(r4)
   22644:	21000104 	addi	r4,r4,4
   22648:	d9012d15 	stw	r4,1204(sp)
   2264c:	b805883a 	mov	r2,r23
   22650:	d8012585 	stb	zero,1174(sp)
   22654:	003c3a06 	br	21740 <___vfprintf_internal_r+0x5e4>
   22658:	d8812d17 	ldw	r2,1204(sp)
   2265c:	15800017 	ldw	r22,0(r2)
   22660:	15000117 	ldw	r20,4(r2)
   22664:	10800204 	addi	r2,r2,8
   22668:	d8812d15 	stw	r2,1204(sp)
   2266c:	dd813315 	stw	r22,1228(sp)
   22670:	dd013415 	stw	r20,1232(sp)
   22674:	003c5906 	br	217dc <___vfprintf_internal_r+0x680>
   22678:	00c00084 	movi	r3,2
   2267c:	d8012585 	stb	zero,1174(sp)
   22680:	003c2f06 	br	21740 <___vfprintf_internal_r+0x5e4>
   22684:	ac800007 	ldb	r18,0(r21)
   22688:	003b1006 	br	212cc <___vfprintf_internal_r+0x170>
   2268c:	8080040c 	andi	r2,r16,16
   22690:	1000091e 	bne	r2,zero,226b8 <___vfprintf_internal_r+0x155c>
   22694:	8400100c 	andi	r16,r16,64
   22698:	80000726 	beq	r16,zero,226b8 <___vfprintf_internal_r+0x155c>
   2269c:	d8c12d17 	ldw	r3,1204(sp)
   226a0:	d9012c17 	ldw	r4,1200(sp)
   226a4:	18800017 	ldw	r2,0(r3)
   226a8:	18c00104 	addi	r3,r3,4
   226ac:	d8c12d15 	stw	r3,1204(sp)
   226b0:	1100000d 	sth	r4,0(r2)
   226b4:	003adf06 	br	21234 <___vfprintf_internal_r+0xd8>
   226b8:	d8c12d17 	ldw	r3,1204(sp)
   226bc:	d9012c17 	ldw	r4,1200(sp)
   226c0:	18800017 	ldw	r2,0(r3)
   226c4:	18c00104 	addi	r3,r3,4
   226c8:	d8c12d15 	stw	r3,1204(sp)
   226cc:	11000015 	stw	r4,0(r2)
   226d0:	003ad806 	br	21234 <___vfprintf_internal_r+0xd8>
   226d4:	8080100c 	andi	r2,r16,64
   226d8:	1000c526 	beq	r2,zero,229f0 <___vfprintf_internal_r+0x1894>
   226dc:	d8812d17 	ldw	r2,1204(sp)
   226e0:	15c0000f 	ldh	r23,0(r2)
   226e4:	10800104 	addi	r2,r2,4
   226e8:	d8812d15 	stw	r2,1204(sp)
   226ec:	b82dd7fa 	srai	r22,r23,31
   226f0:	b005883a 	mov	r2,r22
   226f4:	003c0906 	br	2171c <___vfprintf_internal_r+0x5c0>
   226f8:	4c800115 	stw	r18,4(r9)
   226fc:	9211883a 	add	r8,r18,r8
   22700:	18c00044 	addi	r3,r3,1
   22704:	da011d15 	stw	r8,1140(sp)
   22708:	d8c11c15 	stw	r3,1136(sp)
   2270c:	008001c4 	movi	r2,7
   22710:	10c14016 	blt	r2,r3,22c14 <___vfprintf_internal_r+0x1ab8>
   22714:	4a400204 	addi	r9,r9,8
   22718:	d8813717 	ldw	r2,1244(sp)
   2271c:	9ca7883a 	add	r19,r19,r18
   22720:	48800015 	stw	r2,0(r9)
   22724:	00800044 	movi	r2,1
   22728:	48800115 	stw	r2,4(r9)
   2272c:	4091883a 	add	r8,r8,r2
   22730:	1887883a 	add	r3,r3,r2
   22734:	da011d15 	stw	r8,1140(sp)
   22738:	d8c11c15 	stw	r3,1136(sp)
   2273c:	008001c4 	movi	r2,7
   22740:	10c12c16 	blt	r2,r3,22bf4 <___vfprintf_internal_r+0x1a98>
   22744:	4a400204 	addi	r9,r9,8
   22748:	d9013217 	ldw	r4,1224(sp)
   2274c:	da011d17 	ldw	r8,1140(sp)
   22750:	d8c11c17 	ldw	r3,1136(sp)
   22754:	24a5c83a 	sub	r18,r4,r18
   22758:	4cc00015 	stw	r19,0(r9)
   2275c:	003fa506 	br	225f4 <___vfprintf_internal_r+0x1498>
   22760:	04c000f4 	movhi	r19,3
   22764:	9cf47504 	addi	r19,r19,-11820
   22768:	003c2e06 	br	21824 <___vfprintf_internal_r+0x6c8>
   2276c:	d9412917 	ldw	r5,1188(sp)
   22770:	8809883a 	mov	r4,r17
   22774:	d9811b04 	addi	r6,sp,1132
   22778:	00211280 	call	21128 <__sprint_r>
   2277c:	103bbd1e 	bne	r2,zero,21674 <___vfprintf_internal_r+0x518>
   22780:	da011d17 	ldw	r8,1140(sp)
   22784:	da400404 	addi	r9,sp,16
   22788:	003df606 	br	21f64 <___vfprintf_internal_r+0xe08>
   2278c:	008000f4 	movhi	r2,3
   22790:	10b48404 	addi	r2,r2,-11760
   22794:	48800015 	stw	r2,0(r9)
   22798:	00800044 	movi	r2,1
   2279c:	48800115 	stw	r2,4(r9)
   227a0:	4091883a 	add	r8,r8,r2
   227a4:	1887883a 	add	r3,r3,r2
   227a8:	da011d15 	stw	r8,1140(sp)
   227ac:	d8c11c15 	stw	r3,1136(sp)
   227b0:	008001c4 	movi	r2,7
   227b4:	10c0bc16 	blt	r2,r3,22aa8 <___vfprintf_internal_r+0x194c>
   227b8:	4a400204 	addi	r9,r9,8
   227bc:	9000041e 	bne	r18,zero,227d0 <___vfprintf_internal_r+0x1674>
   227c0:	d8c13217 	ldw	r3,1224(sp)
   227c4:	1800021e 	bne	r3,zero,227d0 <___vfprintf_internal_r+0x1674>
   227c8:	8080004c 	andi	r2,r16,1
   227cc:	103d5226 	beq	r2,zero,21d18 <___vfprintf_internal_r+0xbbc>
   227d0:	d8c11c17 	ldw	r3,1136(sp)
   227d4:	d9013717 	ldw	r4,1244(sp)
   227d8:	00800044 	movi	r2,1
   227dc:	48800115 	stw	r2,4(r9)
   227e0:	49000015 	stw	r4,0(r9)
   227e4:	4091883a 	add	r8,r8,r2
   227e8:	1887883a 	add	r3,r3,r2
   227ec:	da011d15 	stw	r8,1140(sp)
   227f0:	d8c11c15 	stw	r3,1136(sp)
   227f4:	008001c4 	movi	r2,7
   227f8:	10c14516 	blt	r2,r3,22d10 <___vfprintf_internal_r+0x1bb4>
   227fc:	4a400204 	addi	r9,r9,8
   22800:	04a5c83a 	sub	r18,zero,r18
   22804:	0480d70e 	bge	zero,r18,22b64 <___vfprintf_internal_r+0x1a08>
   22808:	05800404 	movi	r22,16
   2280c:	050000f4 	movhi	r20,3
   22810:	a5348884 	addi	r20,r20,-11742
   22814:	b480db0e 	bge	r22,r18,22b84 <___vfprintf_internal_r+0x1a28>
   22818:	05c001c4 	movi	r23,7
   2281c:	df012917 	ldw	fp,1188(sp)
   22820:	00000306 	br	22830 <___vfprintf_internal_r+0x16d4>
   22824:	4a400204 	addi	r9,r9,8
   22828:	94bffc04 	addi	r18,r18,-16
   2282c:	b480d50e 	bge	r22,r18,22b84 <___vfprintf_internal_r+0x1a28>
   22830:	4d000015 	stw	r20,0(r9)
   22834:	4d800115 	stw	r22,4(r9)
   22838:	42000404 	addi	r8,r8,16
   2283c:	18c00044 	addi	r3,r3,1
   22840:	da011d15 	stw	r8,1140(sp)
   22844:	d8c11c15 	stw	r3,1136(sp)
   22848:	b8fff60e 	bge	r23,r3,22824 <___vfprintf_internal_r+0x16c8>
   2284c:	8809883a 	mov	r4,r17
   22850:	e00b883a 	mov	r5,fp
   22854:	d9811b04 	addi	r6,sp,1132
   22858:	00211280 	call	21128 <__sprint_r>
   2285c:	103b851e 	bne	r2,zero,21674 <___vfprintf_internal_r+0x518>
   22860:	da011d17 	ldw	r8,1140(sp)
   22864:	d8c11c17 	ldw	r3,1136(sp)
   22868:	da400404 	addi	r9,sp,16
   2286c:	003fee06 	br	22828 <___vfprintf_internal_r+0x16cc>
   22870:	da413c15 	stw	r9,1264(sp)
   22874:	0027fe80 	call	27fe8 <__isnand>
   22878:	da413c17 	ldw	r9,1264(sp)
   2287c:	10007e1e 	bne	r2,zero,22a78 <___vfprintf_internal_r+0x191c>
   22880:	00bfffc4 	movi	r2,-1
   22884:	e0816a26 	beq	fp,r2,22e30 <___vfprintf_internal_r+0x1cd4>
   22888:	008019c4 	movi	r2,103
   2288c:	90816526 	beq	r18,r2,22e24 <___vfprintf_internal_r+0x1cc8>
   22890:	008011c4 	movi	r2,71
   22894:	90816326 	beq	r18,r2,22e24 <___vfprintf_internal_r+0x1cc8>
   22898:	80c04014 	ori	r3,r16,256
   2289c:	d8c12a15 	stw	r3,1192(sp)
   228a0:	a0016516 	blt	r20,zero,22e38 <___vfprintf_internal_r+0x1cdc>
   228a4:	d8012f05 	stb	zero,1212(sp)
   228a8:	00801984 	movi	r2,102
   228ac:	9080f226 	beq	r18,r2,22c78 <___vfprintf_internal_r+0x1b1c>
   228b0:	00801184 	movi	r2,70
   228b4:	9080f026 	beq	r18,r2,22c78 <___vfprintf_internal_r+0x1b1c>
   228b8:	00801944 	movi	r2,101
   228bc:	90818d26 	beq	r18,r2,22ef4 <___vfprintf_internal_r+0x1d98>
   228c0:	00801144 	movi	r2,69
   228c4:	90818b26 	beq	r18,r2,22ef4 <___vfprintf_internal_r+0x1d98>
   228c8:	e02f883a 	mov	r23,fp
   228cc:	d8812404 	addi	r2,sp,1168
   228d0:	d8800115 	stw	r2,4(sp)
   228d4:	d8812304 	addi	r2,sp,1164
   228d8:	d8800215 	stw	r2,8(sp)
   228dc:	d8812204 	addi	r2,sp,1160
   228e0:	ddc00015 	stw	r23,0(sp)
   228e4:	d8800315 	stw	r2,12(sp)
   228e8:	8809883a 	mov	r4,r17
   228ec:	b00b883a 	mov	r5,r22
   228f0:	a00d883a 	mov	r6,r20
   228f4:	01c00084 	movi	r7,2
   228f8:	da413c15 	stw	r9,1264(sp)
   228fc:	002354c0 	call	2354c <_dtoa_r>
   22900:	1027883a 	mov	r19,r2
   22904:	008019c4 	movi	r2,103
   22908:	da413c17 	ldw	r9,1264(sp)
   2290c:	9081951e 	bne	r18,r2,22f64 <___vfprintf_internal_r+0x1e08>
   22910:	8080004c 	andi	r2,r16,1
   22914:	10017926 	beq	r2,zero,22efc <___vfprintf_internal_r+0x1da0>
   22918:	00801184 	movi	r2,70
   2291c:	9dc7883a 	add	r3,r19,r23
   22920:	9080e626 	beq	r18,r2,22cbc <___vfprintf_internal_r+0x1b60>
   22924:	b009883a 	mov	r4,r22
   22928:	a00b883a 	mov	r5,r20
   2292c:	000d883a 	mov	r6,zero
   22930:	000f883a 	mov	r7,zero
   22934:	d8c13b15 	stw	r3,1260(sp)
   22938:	da413c15 	stw	r9,1264(sp)
   2293c:	0029c040 	call	29c04 <__eqdf2>
   22940:	d8c13b17 	ldw	r3,1260(sp)
   22944:	da413c17 	ldw	r9,1264(sp)
   22948:	10000726 	beq	r2,zero,22968 <___vfprintf_internal_r+0x180c>
   2294c:	d8812217 	ldw	r2,1160(sp)
   22950:	10c18a2e 	bgeu	r2,r3,22f7c <___vfprintf_internal_r+0x1e20>
   22954:	01000c04 	movi	r4,48
   22958:	11000005 	stb	r4,0(r2)
   2295c:	10800044 	addi	r2,r2,1
   22960:	d8812215 	stw	r2,1160(sp)
   22964:	10fffc1e 	bne	r2,r3,22958 <___vfprintf_internal_r+0x17fc>
   22968:	1cc7c83a 	sub	r3,r3,r19
   2296c:	d8c13215 	stw	r3,1224(sp)
   22970:	008019c4 	movi	r2,103
   22974:	9080fa26 	beq	r18,r2,22d60 <___vfprintf_internal_r+0x1c04>
   22978:	008011c4 	movi	r2,71
   2297c:	9080f826 	beq	r18,r2,22d60 <___vfprintf_internal_r+0x1c04>
   22980:	00801984 	movi	r2,102
   22984:	90818e1e 	bne	r18,r2,22fc0 <___vfprintf_internal_r+0x1e64>
   22988:	d8812417 	ldw	r2,1168(sp)
   2298c:	d8812b15 	stw	r2,1196(sp)
   22990:	00817c0e 	bge	zero,r2,22f84 <___vfprintf_internal_r+0x1e28>
   22994:	e000021e 	bne	fp,zero,229a0 <___vfprintf_internal_r+0x1844>
   22998:	8400004c 	andi	r16,r16,1
   2299c:	80000426 	beq	r16,zero,229b0 <___vfprintf_internal_r+0x1854>
   229a0:	d8812b17 	ldw	r2,1196(sp)
   229a4:	e2000044 	addi	r8,fp,1
   229a8:	1205883a 	add	r2,r2,r8
   229ac:	d8812b15 	stw	r2,1196(sp)
   229b0:	d8812815 	stw	r2,1184(sp)
   229b4:	10010b16 	blt	r2,zero,22de4 <___vfprintf_internal_r+0x1c88>
   229b8:	ddc12f07 	ldb	r23,1212(sp)
   229bc:	b800e426 	beq	r23,zero,22d50 <___vfprintf_internal_r+0x1bf4>
   229c0:	00800b44 	movi	r2,45
   229c4:	d8812585 	stb	r2,1174(sp)
   229c8:	dc012a17 	ldw	r16,1192(sp)
   229cc:	d8013115 	stw	zero,1220(sp)
   229d0:	003b7306 	br	217a0 <___vfprintf_internal_r+0x644>
   229d4:	d8812b17 	ldw	r2,1196(sp)
   229d8:	d8812815 	stw	r2,1184(sp)
   229dc:	10005716 	blt	r2,zero,22b3c <___vfprintf_internal_r+0x19e0>
   229e0:	d8812583 	ldbu	r2,1174(sp)
   229e4:	ddc12d15 	stw	r23,1204(sp)
   229e8:	d8013115 	stw	zero,1220(sp)
   229ec:	003b6806 	br	21790 <___vfprintf_internal_r+0x634>
   229f0:	d8c12d17 	ldw	r3,1204(sp)
   229f4:	1dc00017 	ldw	r23,0(r3)
   229f8:	18c00104 	addi	r3,r3,4
   229fc:	d8c12d15 	stw	r3,1204(sp)
   22a00:	b82dd7fa 	srai	r22,r23,31
   22a04:	b005883a 	mov	r2,r22
   22a08:	003b4406 	br	2171c <___vfprintf_internal_r+0x5c0>
   22a0c:	d9012d17 	ldw	r4,1204(sp)
   22a10:	002d883a 	mov	r22,zero
   22a14:	00c00044 	movi	r3,1
   22a18:	25c00017 	ldw	r23,0(r4)
   22a1c:	21000104 	addi	r4,r4,4
   22a20:	d9012d15 	stw	r4,1204(sp)
   22a24:	b805883a 	mov	r2,r23
   22a28:	d8012585 	stb	zero,1174(sp)
   22a2c:	003b4406 	br	21740 <___vfprintf_internal_r+0x5e4>
   22a30:	d9012d17 	ldw	r4,1204(sp)
   22a34:	002d883a 	mov	r22,zero
   22a38:	25c00017 	ldw	r23,0(r4)
   22a3c:	21000104 	addi	r4,r4,4
   22a40:	d9012d15 	stw	r4,1204(sp)
   22a44:	003bab06 	br	218f4 <___vfprintf_internal_r+0x798>
   22a48:	d8812d17 	ldw	r2,1204(sp)
   22a4c:	002d883a 	mov	r22,zero
   22a50:	0007883a 	mov	r3,zero
   22a54:	15c00017 	ldw	r23,0(r2)
   22a58:	10800104 	addi	r2,r2,4
   22a5c:	d8812d15 	stw	r2,1204(sp)
   22a60:	d8012585 	stb	zero,1174(sp)
   22a64:	b805883a 	mov	r2,r23
   22a68:	003b3506 	br	21740 <___vfprintf_internal_r+0x5e4>
   22a6c:	00ffffc4 	movi	r3,-1
   22a70:	b82b883a 	mov	r21,r23
   22a74:	003a1606 	br	212d0 <___vfprintf_internal_r+0x174>
   22a78:	008011c4 	movi	r2,71
   22a7c:	1480b116 	blt	r2,r18,22d44 <___vfprintf_internal_r+0x1be8>
   22a80:	04c000f4 	movhi	r19,3
   22a84:	9cf47604 	addi	r19,r19,-11816
   22a88:	00c000c4 	movi	r3,3
   22a8c:	00bfdfc4 	movi	r2,-129
   22a90:	80a0703a 	and	r16,r16,r2
   22a94:	d8c12815 	stw	r3,1184(sp)
   22a98:	d8812583 	ldbu	r2,1174(sp)
   22a9c:	d8c12b15 	stw	r3,1196(sp)
   22aa0:	d8013115 	stw	zero,1220(sp)
   22aa4:	003b3a06 	br	21790 <___vfprintf_internal_r+0x634>
   22aa8:	d9412917 	ldw	r5,1188(sp)
   22aac:	8809883a 	mov	r4,r17
   22ab0:	d9811b04 	addi	r6,sp,1132
   22ab4:	00211280 	call	21128 <__sprint_r>
   22ab8:	103aee1e 	bne	r2,zero,21674 <___vfprintf_internal_r+0x518>
   22abc:	dc812417 	ldw	r18,1168(sp)
   22ac0:	da011d17 	ldw	r8,1140(sp)
   22ac4:	da400404 	addi	r9,sp,16
   22ac8:	003f3c06 	br	227bc <___vfprintf_internal_r+0x1660>
   22acc:	ad400044 	addi	r21,r21,1
   22ad0:	84000814 	ori	r16,r16,32
   22ad4:	14800047 	ldb	r18,1(r2)
   22ad8:	0039fc06 	br	212cc <___vfprintf_internal_r+0x170>
   22adc:	d9412917 	ldw	r5,1188(sp)
   22ae0:	8809883a 	mov	r4,r17
   22ae4:	d9811b04 	addi	r6,sp,1132
   22ae8:	00211280 	call	21128 <__sprint_r>
   22aec:	103ae11e 	bne	r2,zero,21674 <___vfprintf_internal_r+0x518>
   22af0:	da011d17 	ldw	r8,1140(sp)
   22af4:	da400404 	addi	r9,sp,16
   22af8:	003d2b06 	br	21fa8 <___vfprintf_internal_r+0xe4c>
   22afc:	4d000015 	stw	r20,0(r9)
   22b00:	4c800115 	stw	r18,4(r9)
   22b04:	4491883a 	add	r8,r8,r18
   22b08:	18c00044 	addi	r3,r3,1
   22b0c:	da011d15 	stw	r8,1140(sp)
   22b10:	d8c11c15 	stw	r3,1136(sp)
   22b14:	008001c4 	movi	r2,7
   22b18:	10fcbd16 	blt	r2,r3,21e10 <___vfprintf_internal_r+0xcb4>
   22b1c:	4a400204 	addi	r9,r9,8
   22b20:	003cc206 	br	21e2c <___vfprintf_internal_r+0xcd0>
   22b24:	da413c15 	stw	r9,1264(sp)
   22b28:	002109c0 	call	2109c <strlen>
   22b2c:	d8812b15 	stw	r2,1196(sp)
   22b30:	d8812815 	stw	r2,1184(sp)
   22b34:	da413c17 	ldw	r9,1264(sp)
   22b38:	103fa90e 	bge	r2,zero,229e0 <___vfprintf_internal_r+0x1884>
   22b3c:	d8012815 	stw	zero,1184(sp)
   22b40:	003fa706 	br	229e0 <___vfprintf_internal_r+0x1884>
   22b44:	d9412917 	ldw	r5,1188(sp)
   22b48:	8809883a 	mov	r4,r17
   22b4c:	d9811b04 	addi	r6,sp,1132
   22b50:	00211280 	call	21128 <__sprint_r>
   22b54:	103ac71e 	bne	r2,zero,21674 <___vfprintf_internal_r+0x518>
   22b58:	da011d17 	ldw	r8,1140(sp)
   22b5c:	d8c11c17 	ldw	r3,1136(sp)
   22b60:	da400404 	addi	r9,sp,16
   22b64:	d8813217 	ldw	r2,1224(sp)
   22b68:	4cc00015 	stw	r19,0(r9)
   22b6c:	48800115 	stw	r2,4(r9)
   22b70:	4091883a 	add	r8,r8,r2
   22b74:	003c6206 	br	21d00 <___vfprintf_internal_r+0xba4>
   22b78:	00800b44 	movi	r2,45
   22b7c:	d8812585 	stb	r2,1174(sp)
   22b80:	003b2406 	br	21814 <___vfprintf_internal_r+0x6b8>
   22b84:	4d000015 	stw	r20,0(r9)
   22b88:	4c800115 	stw	r18,4(r9)
   22b8c:	4491883a 	add	r8,r8,r18
   22b90:	18c00044 	addi	r3,r3,1
   22b94:	da011d15 	stw	r8,1140(sp)
   22b98:	d8c11c15 	stw	r3,1136(sp)
   22b9c:	008001c4 	movi	r2,7
   22ba0:	10ffe816 	blt	r2,r3,22b44 <___vfprintf_internal_r+0x19e8>
   22ba4:	4a400204 	addi	r9,r9,8
   22ba8:	003fee06 	br	22b64 <___vfprintf_internal_r+0x1a08>
   22bac:	d8c12b15 	stw	r3,1196(sp)
   22bb0:	00800184 	movi	r2,6
   22bb4:	10c0062e 	bgeu	r2,r3,22bd0 <___vfprintf_internal_r+0x1a74>
   22bb8:	d8812b15 	stw	r2,1196(sp)
   22bbc:	d8812815 	stw	r2,1184(sp)
   22bc0:	ddc12d15 	stw	r23,1204(sp)
   22bc4:	04c000f4 	movhi	r19,3
   22bc8:	9cf48204 	addi	r19,r19,-11768
   22bcc:	0039ca06 	br	212f8 <___vfprintf_internal_r+0x19c>
   22bd0:	d8812b17 	ldw	r2,1196(sp)
   22bd4:	d8812815 	stw	r2,1184(sp)
   22bd8:	103ff90e 	bge	r2,zero,22bc0 <___vfprintf_internal_r+0x1a64>
   22bdc:	d8012815 	stw	zero,1184(sp)
   22be0:	003ff706 	br	22bc0 <___vfprintf_internal_r+0x1a64>
   22be4:	00800244 	movi	r2,9
   22be8:	15fdaa36 	bltu	r2,r23,22294 <___vfprintf_internal_r+0x1138>
   22bec:	dd010e04 	addi	r20,sp,1080
   22bf0:	003dc606 	br	2230c <___vfprintf_internal_r+0x11b0>
   22bf4:	d9412917 	ldw	r5,1188(sp)
   22bf8:	8809883a 	mov	r4,r17
   22bfc:	d9811b04 	addi	r6,sp,1132
   22c00:	00211280 	call	21128 <__sprint_r>
   22c04:	103a9b1e 	bne	r2,zero,21674 <___vfprintf_internal_r+0x518>
   22c08:	dc812417 	ldw	r18,1168(sp)
   22c0c:	da400404 	addi	r9,sp,16
   22c10:	003ecd06 	br	22748 <___vfprintf_internal_r+0x15ec>
   22c14:	d9412917 	ldw	r5,1188(sp)
   22c18:	8809883a 	mov	r4,r17
   22c1c:	d9811b04 	addi	r6,sp,1132
   22c20:	00211280 	call	21128 <__sprint_r>
   22c24:	103a931e 	bne	r2,zero,21674 <___vfprintf_internal_r+0x518>
   22c28:	dc812417 	ldw	r18,1168(sp)
   22c2c:	da011d17 	ldw	r8,1140(sp)
   22c30:	d8c11c17 	ldw	r3,1136(sp)
   22c34:	da400404 	addi	r9,sp,16
   22c38:	003eb706 	br	22718 <___vfprintf_internal_r+0x15bc>
   22c3c:	d9412917 	ldw	r5,1188(sp)
   22c40:	8809883a 	mov	r4,r17
   22c44:	d9811b04 	addi	r6,sp,1132
   22c48:	00211280 	call	21128 <__sprint_r>
   22c4c:	103a891e 	bne	r2,zero,21674 <___vfprintf_internal_r+0x518>
   22c50:	dc812417 	ldw	r18,1168(sp)
   22c54:	da011d17 	ldw	r8,1140(sp)
   22c58:	da400404 	addi	r9,sp,16
   22c5c:	003dc206 	br	22368 <___vfprintf_internal_r+0x120c>
   22c60:	df012815 	stw	fp,1184(sp)
   22c64:	d8812583 	ldbu	r2,1174(sp)
   22c68:	df012b15 	stw	fp,1196(sp)
   22c6c:	ddc12d15 	stw	r23,1204(sp)
   22c70:	d8013115 	stw	zero,1220(sp)
   22c74:	003ac606 	br	21790 <___vfprintf_internal_r+0x634>
   22c78:	d8812404 	addi	r2,sp,1168
   22c7c:	d8800115 	stw	r2,4(sp)
   22c80:	d8812304 	addi	r2,sp,1164
   22c84:	d8800215 	stw	r2,8(sp)
   22c88:	d8812204 	addi	r2,sp,1160
   22c8c:	df000015 	stw	fp,0(sp)
   22c90:	d8800315 	stw	r2,12(sp)
   22c94:	8809883a 	mov	r4,r17
   22c98:	b00b883a 	mov	r5,r22
   22c9c:	a00d883a 	mov	r6,r20
   22ca0:	01c000c4 	movi	r7,3
   22ca4:	da413c15 	stw	r9,1264(sp)
   22ca8:	002354c0 	call	2354c <_dtoa_r>
   22cac:	da413c17 	ldw	r9,1264(sp)
   22cb0:	1027883a 	mov	r19,r2
   22cb4:	1707883a 	add	r3,r2,fp
   22cb8:	e02f883a 	mov	r23,fp
   22cbc:	99000007 	ldb	r4,0(r19)
   22cc0:	00800c04 	movi	r2,48
   22cc4:	20800326 	beq	r4,r2,22cd4 <___vfprintf_internal_r+0x1b78>
   22cc8:	da812417 	ldw	r10,1168(sp)
   22ccc:	1a87883a 	add	r3,r3,r10
   22cd0:	003f1406 	br	22924 <___vfprintf_internal_r+0x17c8>
   22cd4:	b009883a 	mov	r4,r22
   22cd8:	a00b883a 	mov	r5,r20
   22cdc:	000d883a 	mov	r6,zero
   22ce0:	000f883a 	mov	r7,zero
   22ce4:	d8c13b15 	stw	r3,1260(sp)
   22ce8:	da413c15 	stw	r9,1264(sp)
   22cec:	0029c600 	call	29c60 <__nedf2>
   22cf0:	d8c13b17 	ldw	r3,1260(sp)
   22cf4:	da413c17 	ldw	r9,1264(sp)
   22cf8:	103ff326 	beq	r2,zero,22cc8 <___vfprintf_internal_r+0x1b6c>
   22cfc:	00800044 	movi	r2,1
   22d00:	15d5c83a 	sub	r10,r2,r23
   22d04:	da812415 	stw	r10,1168(sp)
   22d08:	1a87883a 	add	r3,r3,r10
   22d0c:	003f0506 	br	22924 <___vfprintf_internal_r+0x17c8>
   22d10:	d9412917 	ldw	r5,1188(sp)
   22d14:	8809883a 	mov	r4,r17
   22d18:	d9811b04 	addi	r6,sp,1132
   22d1c:	00211280 	call	21128 <__sprint_r>
   22d20:	103a541e 	bne	r2,zero,21674 <___vfprintf_internal_r+0x518>
   22d24:	dc812417 	ldw	r18,1168(sp)
   22d28:	da011d17 	ldw	r8,1140(sp)
   22d2c:	d8c11c17 	ldw	r3,1136(sp)
   22d30:	da400404 	addi	r9,sp,16
   22d34:	003eb206 	br	22800 <___vfprintf_internal_r+0x16a4>
   22d38:	b82b883a 	mov	r21,r23
   22d3c:	0007883a 	mov	r3,zero
   22d40:	00396306 	br	212d0 <___vfprintf_internal_r+0x174>
   22d44:	04c000f4 	movhi	r19,3
   22d48:	9cf47704 	addi	r19,r19,-11812
   22d4c:	003f4e06 	br	22a88 <___vfprintf_internal_r+0x192c>
   22d50:	d8812583 	ldbu	r2,1174(sp)
   22d54:	dc012a17 	ldw	r16,1192(sp)
   22d58:	d8013115 	stw	zero,1220(sp)
   22d5c:	003a8c06 	br	21790 <___vfprintf_internal_r+0x634>
   22d60:	d8812417 	ldw	r2,1168(sp)
   22d64:	d8812b15 	stw	r2,1196(sp)
   22d68:	1029883a 	mov	r20,r2
   22d6c:	00bfff44 	movi	r2,-3
   22d70:	a0800116 	blt	r20,r2,22d78 <___vfprintf_internal_r+0x1c1c>
   22d74:	e5001d0e 	bge	fp,r20,22dec <___vfprintf_internal_r+0x1c90>
   22d78:	94bfff84 	addi	r18,r18,-2
   22d7c:	a53fffc4 	addi	r20,r20,-1
   22d80:	dd012415 	stw	r20,1168(sp)
   22d84:	dc811fc5 	stb	r18,1151(sp)
   22d88:	a0007216 	blt	r20,zero,22f54 <___vfprintf_internal_r+0x1df8>
   22d8c:	00800ac4 	movi	r2,43
   22d90:	d8812005 	stb	r2,1152(sp)
   22d94:	00800244 	movi	r2,9
   22d98:	15003516 	blt	r2,r20,22e70 <___vfprintf_internal_r+0x1d14>
   22d9c:	00800c04 	movi	r2,48
   22da0:	a5000c04 	addi	r20,r20,48
   22da4:	d8812045 	stb	r2,1153(sp)
   22da8:	dd012085 	stb	r20,1154(sp)
   22dac:	d8c120c4 	addi	r3,sp,1155
   22db0:	d8811fc4 	addi	r2,sp,1151
   22db4:	1885c83a 	sub	r2,r3,r2
   22db8:	d8c13217 	ldw	r3,1224(sp)
   22dbc:	d8813515 	stw	r2,1236(sp)
   22dc0:	1885883a 	add	r2,r3,r2
   22dc4:	d8812b15 	stw	r2,1196(sp)
   22dc8:	00800044 	movi	r2,1
   22dcc:	10c0580e 	bge	r2,r3,22f30 <___vfprintf_internal_r+0x1dd4>
   22dd0:	d8812b17 	ldw	r2,1196(sp)
   22dd4:	10800044 	addi	r2,r2,1
   22dd8:	d8812b15 	stw	r2,1196(sp)
   22ddc:	d8812815 	stw	r2,1184(sp)
   22de0:	103ef50e 	bge	r2,zero,229b8 <___vfprintf_internal_r+0x185c>
   22de4:	d8012815 	stw	zero,1184(sp)
   22de8:	003ef306 	br	229b8 <___vfprintf_internal_r+0x185c>
   22dec:	d8812b17 	ldw	r2,1196(sp)
   22df0:	d8c13217 	ldw	r3,1224(sp)
   22df4:	10c01416 	blt	r2,r3,22e48 <___vfprintf_internal_r+0x1cec>
   22df8:	8400004c 	andi	r16,r16,1
   22dfc:	80000326 	beq	r16,zero,22e0c <___vfprintf_internal_r+0x1cb0>
   22e00:	d8812b17 	ldw	r2,1196(sp)
   22e04:	10800044 	addi	r2,r2,1
   22e08:	d8812b15 	stw	r2,1196(sp)
   22e0c:	d8812815 	stw	r2,1184(sp)
   22e10:	10001416 	blt	r2,zero,22e64 <___vfprintf_internal_r+0x1d08>
   22e14:	048019c4 	movi	r18,103
   22e18:	003ee706 	br	229b8 <___vfprintf_internal_r+0x185c>
   22e1c:	d8012815 	stw	zero,1184(sp)
   22e20:	003b1a06 	br	21a8c <___vfprintf_internal_r+0x930>
   22e24:	e03e9c1e 	bne	fp,zero,22898 <___vfprintf_internal_r+0x173c>
   22e28:	07000044 	movi	fp,1
   22e2c:	003e9a06 	br	22898 <___vfprintf_internal_r+0x173c>
   22e30:	07000184 	movi	fp,6
   22e34:	003e9806 	br	22898 <___vfprintf_internal_r+0x173c>
   22e38:	00c00b44 	movi	r3,45
   22e3c:	a520003c 	xorhi	r20,r20,32768
   22e40:	d8c12f05 	stb	r3,1212(sp)
   22e44:	003e9806 	br	228a8 <___vfprintf_internal_r+0x174c>
   22e48:	05003f0e 	bge	zero,r20,22f48 <___vfprintf_internal_r+0x1dec>
   22e4c:	05000044 	movi	r20,1
   22e50:	d8c13217 	ldw	r3,1224(sp)
   22e54:	a0e9883a 	add	r20,r20,r3
   22e58:	dd012b15 	stw	r20,1196(sp)
   22e5c:	dd012815 	stw	r20,1184(sp)
   22e60:	a03fec0e 	bge	r20,zero,22e14 <___vfprintf_internal_r+0x1cb8>
   22e64:	d8012815 	stw	zero,1184(sp)
   22e68:	048019c4 	movi	r18,103
   22e6c:	003ed206 	br	229b8 <___vfprintf_internal_r+0x185c>
   22e70:	d8c11f84 	addi	r3,sp,1150
   22e74:	102f883a 	mov	r23,r2
   22e78:	4839883a 	mov	fp,r9
   22e7c:	a009883a 	mov	r4,r20
   22e80:	01400284 	movi	r5,10
   22e84:	182d883a 	mov	r22,r3
   22e88:	002a1680 	call	2a168 <__modsi3>
   22e8c:	10800c04 	addi	r2,r2,48
   22e90:	a009883a 	mov	r4,r20
   22e94:	b0800005 	stb	r2,0(r22)
   22e98:	01400284 	movi	r5,10
   22e9c:	002a1180 	call	2a118 <__divsi3>
   22ea0:	1029883a 	mov	r20,r2
   22ea4:	b0ffffc4 	addi	r3,r22,-1
   22ea8:	b8bff416 	blt	r23,r2,22e7c <___vfprintf_internal_r+0x1d20>
   22eac:	11400c04 	addi	r5,r2,48
   22eb0:	b17fffc5 	stb	r5,-1(r22)
   22eb4:	d8811fc4 	addi	r2,sp,1151
   22eb8:	e013883a 	mov	r9,fp
   22ebc:	18803e2e 	bgeu	r3,r2,22fb8 <___vfprintf_internal_r+0x1e5c>
   22ec0:	b007883a 	mov	r3,r22
   22ec4:	d9012044 	addi	r4,sp,1153
   22ec8:	00000206 	br	22ed4 <___vfprintf_internal_r+0x1d78>
   22ecc:	19400003 	ldbu	r5,0(r3)
   22ed0:	18c00044 	addi	r3,r3,1
   22ed4:	21400005 	stb	r5,0(r4)
   22ed8:	21000044 	addi	r4,r4,1
   22edc:	10fffb1e 	bne	r2,r3,22ecc <___vfprintf_internal_r+0x1d70>
   22ee0:	d8c12004 	addi	r3,sp,1152
   22ee4:	1d87c83a 	sub	r3,r3,r22
   22ee8:	d9012044 	addi	r4,sp,1153
   22eec:	20c7883a 	add	r3,r4,r3
   22ef0:	003fb006 	br	22db4 <___vfprintf_internal_r+0x1c58>
   22ef4:	e5c00044 	addi	r23,fp,1
   22ef8:	003e7406 	br	228cc <___vfprintf_internal_r+0x1770>
   22efc:	d8c12217 	ldw	r3,1160(sp)
   22f00:	003e9906 	br	22968 <___vfprintf_internal_r+0x180c>
   22f04:	d9012d17 	ldw	r4,1204(sp)
   22f08:	ac800043 	ldbu	r18,1(r21)
   22f0c:	b82b883a 	mov	r21,r23
   22f10:	20c00017 	ldw	r3,0(r4)
   22f14:	20800104 	addi	r2,r4,4
   22f18:	d8812d15 	stw	r2,1204(sp)
   22f1c:	18002116 	blt	r3,zero,22fa4 <___vfprintf_internal_r+0x1e48>
   22f20:	94803fcc 	andi	r18,r18,255
   22f24:	9480201c 	xori	r18,r18,128
   22f28:	94bfe004 	addi	r18,r18,-128
   22f2c:	0038e706 	br	212cc <___vfprintf_internal_r+0x170>
   22f30:	80a0703a 	and	r16,r16,r2
   22f34:	803fa61e 	bne	r16,zero,22dd0 <___vfprintf_internal_r+0x1c74>
   22f38:	d8812b17 	ldw	r2,1196(sp)
   22f3c:	d8812815 	stw	r2,1184(sp)
   22f40:	103e9d0e 	bge	r2,zero,229b8 <___vfprintf_internal_r+0x185c>
   22f44:	003fa706 	br	22de4 <___vfprintf_internal_r+0x1c88>
   22f48:	00800084 	movi	r2,2
   22f4c:	1529c83a 	sub	r20,r2,r20
   22f50:	003fbf06 	br	22e50 <___vfprintf_internal_r+0x1cf4>
   22f54:	00800b44 	movi	r2,45
   22f58:	0529c83a 	sub	r20,zero,r20
   22f5c:	d8812005 	stb	r2,1152(sp)
   22f60:	003f8c06 	br	22d94 <___vfprintf_internal_r+0x1c38>
   22f64:	008011c4 	movi	r2,71
   22f68:	90be6926 	beq	r18,r2,22910 <___vfprintf_internal_r+0x17b4>
   22f6c:	003e6a06 	br	22918 <___vfprintf_internal_r+0x17bc>
   22f70:	00bfffc4 	movi	r2,-1
   22f74:	d8812c15 	stw	r2,1200(sp)
   22f78:	0039ad06 	br	21630 <___vfprintf_internal_r+0x4d4>
   22f7c:	1007883a 	mov	r3,r2
   22f80:	003e7906 	br	22968 <___vfprintf_internal_r+0x180c>
   22f84:	e000021e 	bne	fp,zero,22f90 <___vfprintf_internal_r+0x1e34>
   22f88:	8400004c 	andi	r16,r16,1
   22f8c:	80000e26 	beq	r16,zero,22fc8 <___vfprintf_internal_r+0x1e6c>
   22f90:	e7000084 	addi	fp,fp,2
   22f94:	df012b15 	stw	fp,1196(sp)
   22f98:	df012815 	stw	fp,1184(sp)
   22f9c:	e03e860e 	bge	fp,zero,229b8 <___vfprintf_internal_r+0x185c>
   22fa0:	003f9006 	br	22de4 <___vfprintf_internal_r+0x1c88>
   22fa4:	94803fcc 	andi	r18,r18,255
   22fa8:	9480201c 	xori	r18,r18,128
   22fac:	00ffffc4 	movi	r3,-1
   22fb0:	94bfe004 	addi	r18,r18,-128
   22fb4:	0038c506 	br	212cc <___vfprintf_internal_r+0x170>
   22fb8:	d8c12044 	addi	r3,sp,1153
   22fbc:	003f7d06 	br	22db4 <___vfprintf_internal_r+0x1c58>
   22fc0:	dd012417 	ldw	r20,1168(sp)
   22fc4:	003f6d06 	br	22d7c <___vfprintf_internal_r+0x1c20>
   22fc8:	00c00044 	movi	r3,1
   22fcc:	d8c12815 	stw	r3,1184(sp)
   22fd0:	d8c12b15 	stw	r3,1196(sp)
   22fd4:	003e7806 	br	229b8 <___vfprintf_internal_r+0x185c>

00022fd8 <__vfprintf_internal>:
   22fd8:	008000f4 	movhi	r2,3
   22fdc:	10bb8404 	addi	r2,r2,-4592
   22fe0:	2007883a 	mov	r3,r4
   22fe4:	11000017 	ldw	r4,0(r2)
   22fe8:	2805883a 	mov	r2,r5
   22fec:	300f883a 	mov	r7,r6
   22ff0:	180b883a 	mov	r5,r3
   22ff4:	100d883a 	mov	r6,r2
   22ff8:	002115c1 	jmpi	2115c <___vfprintf_internal_r>

00022ffc <__swsetup_r>:
   22ffc:	008000f4 	movhi	r2,3
   23000:	10bb8404 	addi	r2,r2,-4592
   23004:	10800017 	ldw	r2,0(r2)
   23008:	defffd04 	addi	sp,sp,-12
   2300c:	dc400115 	stw	r17,4(sp)
   23010:	dc000015 	stw	r16,0(sp)
   23014:	dfc00215 	stw	ra,8(sp)
   23018:	2023883a 	mov	r17,r4
   2301c:	2821883a 	mov	r16,r5
   23020:	10000226 	beq	r2,zero,2302c <__swsetup_r+0x30>
   23024:	10c00e17 	ldw	r3,56(r2)
   23028:	18003d26 	beq	r3,zero,23120 <__swsetup_r+0x124>
   2302c:	8080030b 	ldhu	r2,12(r16)
   23030:	10c0020c 	andi	r3,r2,8
   23034:	18ffffcc 	andi	r3,r3,65535
   23038:	18e0001c 	xori	r3,r3,32768
   2303c:	18e00004 	addi	r3,r3,-32768
   23040:	18001226 	beq	r3,zero,2308c <__swsetup_r+0x90>
   23044:	80c00417 	ldw	r3,16(r16)
   23048:	18001f26 	beq	r3,zero,230c8 <__swsetup_r+0xcc>
   2304c:	1100004c 	andi	r4,r2,1
   23050:	2000261e 	bne	r4,zero,230ec <__swsetup_r+0xf0>
   23054:	1080008c 	andi	r2,r2,2
   23058:	10bfffcc 	andi	r2,r2,65535
   2305c:	10a0001c 	xori	r2,r2,32768
   23060:	10a00004 	addi	r2,r2,-32768
   23064:	1000311e 	bne	r2,zero,2312c <__swsetup_r+0x130>
   23068:	80800517 	ldw	r2,20(r16)
   2306c:	80800215 	stw	r2,8(r16)
   23070:	18002326 	beq	r3,zero,23100 <__swsetup_r+0x104>
   23074:	0005883a 	mov	r2,zero
   23078:	dfc00217 	ldw	ra,8(sp)
   2307c:	dc400117 	ldw	r17,4(sp)
   23080:	dc000017 	ldw	r16,0(sp)
   23084:	dec00304 	addi	sp,sp,12
   23088:	f800283a 	ret
   2308c:	10c0040c 	andi	r3,r2,16
   23090:	18ffffcc 	andi	r3,r3,65535
   23094:	18e0001c 	xori	r3,r3,32768
   23098:	18e00004 	addi	r3,r3,-32768
   2309c:	18001e26 	beq	r3,zero,23118 <__swsetup_r+0x11c>
   230a0:	10c0010c 	andi	r3,r2,4
   230a4:	18ffffcc 	andi	r3,r3,65535
   230a8:	18e0001c 	xori	r3,r3,32768
   230ac:	18e00004 	addi	r3,r3,-32768
   230b0:	1800211e 	bne	r3,zero,23138 <__swsetup_r+0x13c>
   230b4:	80c00417 	ldw	r3,16(r16)
   230b8:	11400214 	ori	r5,r2,8
   230bc:	8140030d 	sth	r5,12(r16)
   230c0:	2805883a 	mov	r2,r5
   230c4:	183fe11e 	bne	r3,zero,2304c <__swsetup_r+0x50>
   230c8:	1140a00c 	andi	r5,r2,640
   230cc:	01008004 	movi	r4,512
   230d0:	293fde26 	beq	r5,r4,2304c <__swsetup_r+0x50>
   230d4:	8809883a 	mov	r4,r17
   230d8:	800b883a 	mov	r5,r16
   230dc:	0025b980 	call	25b98 <__smakebuf_r>
   230e0:	8080030b 	ldhu	r2,12(r16)
   230e4:	80c00417 	ldw	r3,16(r16)
   230e8:	003fd806 	br	2304c <__swsetup_r+0x50>
   230ec:	80800517 	ldw	r2,20(r16)
   230f0:	80000215 	stw	zero,8(r16)
   230f4:	0085c83a 	sub	r2,zero,r2
   230f8:	80800615 	stw	r2,24(r16)
   230fc:	183fdd1e 	bne	r3,zero,23074 <__swsetup_r+0x78>
   23100:	8080030b 	ldhu	r2,12(r16)
   23104:	1080200c 	andi	r2,r2,128
   23108:	10bfffcc 	andi	r2,r2,65535
   2310c:	10a0001c 	xori	r2,r2,32768
   23110:	10a00004 	addi	r2,r2,-32768
   23114:	103fd826 	beq	r2,zero,23078 <__swsetup_r+0x7c>
   23118:	00bfffc4 	movi	r2,-1
   2311c:	003fd606 	br	23078 <__swsetup_r+0x7c>
   23120:	1009883a 	mov	r4,r2
   23124:	0024e240 	call	24e24 <__sinit>
   23128:	003fc006 	br	2302c <__swsetup_r+0x30>
   2312c:	0005883a 	mov	r2,zero
   23130:	80800215 	stw	r2,8(r16)
   23134:	003fce06 	br	23070 <__swsetup_r+0x74>
   23138:	81400c17 	ldw	r5,48(r16)
   2313c:	28000626 	beq	r5,zero,23158 <__swsetup_r+0x15c>
   23140:	80c01004 	addi	r3,r16,64
   23144:	28c00326 	beq	r5,r3,23154 <__swsetup_r+0x158>
   23148:	8809883a 	mov	r4,r17
   2314c:	00251a80 	call	251a8 <_free_r>
   23150:	8080030b 	ldhu	r2,12(r16)
   23154:	80000c15 	stw	zero,48(r16)
   23158:	80c00417 	ldw	r3,16(r16)
   2315c:	013ff6c4 	movi	r4,-37
   23160:	2084703a 	and	r2,r4,r2
   23164:	80000115 	stw	zero,4(r16)
   23168:	80c00015 	stw	r3,0(r16)
   2316c:	003fd206 	br	230b8 <__swsetup_r+0xbc>

00023170 <__call_exitprocs>:
   23170:	008000f4 	movhi	r2,3
   23174:	10bb8304 	addi	r2,r2,-4596
   23178:	10800017 	ldw	r2,0(r2)
   2317c:	defff304 	addi	sp,sp,-52
   23180:	df000b15 	stw	fp,44(sp)
   23184:	d8800015 	stw	r2,0(sp)
   23188:	10805204 	addi	r2,r2,328
   2318c:	dd400815 	stw	r21,32(sp)
   23190:	dfc00c15 	stw	ra,48(sp)
   23194:	ddc00a15 	stw	r23,40(sp)
   23198:	dd800915 	stw	r22,36(sp)
   2319c:	dd000715 	stw	r20,28(sp)
   231a0:	dcc00615 	stw	r19,24(sp)
   231a4:	dc800515 	stw	r18,20(sp)
   231a8:	dc400415 	stw	r17,16(sp)
   231ac:	dc000315 	stw	r16,12(sp)
   231b0:	d9000115 	stw	r4,4(sp)
   231b4:	2839883a 	mov	fp,r5
   231b8:	d8800215 	stw	r2,8(sp)
   231bc:	057fffc4 	movi	r21,-1
   231c0:	d8800017 	ldw	r2,0(sp)
   231c4:	ddc00217 	ldw	r23,8(sp)
   231c8:	14805217 	ldw	r18,328(r2)
   231cc:	90001726 	beq	r18,zero,2322c <__call_exitprocs+0xbc>
   231d0:	94400117 	ldw	r17,4(r18)
   231d4:	8c3fffc4 	addi	r16,r17,-1
   231d8:	80001116 	blt	r16,zero,23220 <__call_exitprocs+0xb0>
   231dc:	8c400044 	addi	r17,r17,1
   231e0:	8427883a 	add	r19,r16,r16
   231e4:	8c63883a 	add	r17,r17,r17
   231e8:	95802204 	addi	r22,r18,136
   231ec:	9ce7883a 	add	r19,r19,r19
   231f0:	8c63883a 	add	r17,r17,r17
   231f4:	b4e7883a 	add	r19,r22,r19
   231f8:	9463883a 	add	r17,r18,r17
   231fc:	e0001726 	beq	fp,zero,2325c <__call_exitprocs+0xec>
   23200:	8c87c83a 	sub	r3,r17,r18
   23204:	b0c7883a 	add	r3,r22,r3
   23208:	18c01e17 	ldw	r3,120(r3)
   2320c:	1f001326 	beq	r3,fp,2325c <__call_exitprocs+0xec>
   23210:	843fffc4 	addi	r16,r16,-1
   23214:	9cffff04 	addi	r19,r19,-4
   23218:	8c7fff04 	addi	r17,r17,-4
   2321c:	857ff71e 	bne	r16,r21,231fc <__call_exitprocs+0x8c>
   23220:	00800034 	movhi	r2,0
   23224:	10800004 	addi	r2,r2,0
   23228:	10002a1e 	bne	r2,zero,232d4 <__call_exitprocs+0x164>
   2322c:	dfc00c17 	ldw	ra,48(sp)
   23230:	df000b17 	ldw	fp,44(sp)
   23234:	ddc00a17 	ldw	r23,40(sp)
   23238:	dd800917 	ldw	r22,36(sp)
   2323c:	dd400817 	ldw	r21,32(sp)
   23240:	dd000717 	ldw	r20,28(sp)
   23244:	dcc00617 	ldw	r19,24(sp)
   23248:	dc800517 	ldw	r18,20(sp)
   2324c:	dc400417 	ldw	r17,16(sp)
   23250:	dc000317 	ldw	r16,12(sp)
   23254:	dec00d04 	addi	sp,sp,52
   23258:	f800283a 	ret
   2325c:	91000117 	ldw	r4,4(r18)
   23260:	88c00017 	ldw	r3,0(r17)
   23264:	213fffc4 	addi	r4,r4,-1
   23268:	24001526 	beq	r4,r16,232c0 <__call_exitprocs+0x150>
   2326c:	88000015 	stw	zero,0(r17)
   23270:	183fe726 	beq	r3,zero,23210 <__call_exitprocs+0xa0>
   23274:	00800044 	movi	r2,1
   23278:	1408983a 	sll	r4,r2,r16
   2327c:	91406217 	ldw	r5,392(r18)
   23280:	95000117 	ldw	r20,4(r18)
   23284:	214a703a 	and	r5,r4,r5
   23288:	28000b26 	beq	r5,zero,232b8 <__call_exitprocs+0x148>
   2328c:	91406317 	ldw	r5,396(r18)
   23290:	2148703a 	and	r4,r4,r5
   23294:	20000c1e 	bne	r4,zero,232c8 <__call_exitprocs+0x158>
   23298:	99400017 	ldw	r5,0(r19)
   2329c:	d9000117 	ldw	r4,4(sp)
   232a0:	183ee83a 	callr	r3
   232a4:	90c00117 	ldw	r3,4(r18)
   232a8:	1d3fc51e 	bne	r3,r20,231c0 <__call_exitprocs+0x50>
   232ac:	b8c00017 	ldw	r3,0(r23)
   232b0:	1cbfd726 	beq	r3,r18,23210 <__call_exitprocs+0xa0>
   232b4:	003fc206 	br	231c0 <__call_exitprocs+0x50>
   232b8:	183ee83a 	callr	r3
   232bc:	003ff906 	br	232a4 <__call_exitprocs+0x134>
   232c0:	94000115 	stw	r16,4(r18)
   232c4:	003fea06 	br	23270 <__call_exitprocs+0x100>
   232c8:	99000017 	ldw	r4,0(r19)
   232cc:	183ee83a 	callr	r3
   232d0:	003ff406 	br	232a4 <__call_exitprocs+0x134>
   232d4:	90c00117 	ldw	r3,4(r18)
   232d8:	1800071e 	bne	r3,zero,232f8 <__call_exitprocs+0x188>
   232dc:	90c00017 	ldw	r3,0(r18)
   232e0:	18000926 	beq	r3,zero,23308 <__call_exitprocs+0x198>
   232e4:	9009883a 	mov	r4,r18
   232e8:	b8c00015 	stw	r3,0(r23)
   232ec:	00000000 	call	0 <__alt_mem_onchip_mem_c1-0x20000>
   232f0:	bc800017 	ldw	r18,0(r23)
   232f4:	003fb506 	br	231cc <__call_exitprocs+0x5c>
   232f8:	90c00017 	ldw	r3,0(r18)
   232fc:	902f883a 	mov	r23,r18
   23300:	1825883a 	mov	r18,r3
   23304:	003fb106 	br	231cc <__call_exitprocs+0x5c>
   23308:	0007883a 	mov	r3,zero
   2330c:	003ffb06 	br	232fc <__call_exitprocs+0x18c>

00023310 <quorem>:
   23310:	defff204 	addi	sp,sp,-56
   23314:	dd000815 	stw	r20,32(sp)
   23318:	20800417 	ldw	r2,16(r4)
   2331c:	2d000417 	ldw	r20,16(r5)
   23320:	dcc00715 	stw	r19,28(sp)
   23324:	dfc00d15 	stw	ra,52(sp)
   23328:	df000c15 	stw	fp,48(sp)
   2332c:	ddc00b15 	stw	r23,44(sp)
   23330:	dd800a15 	stw	r22,40(sp)
   23334:	dd400915 	stw	r21,36(sp)
   23338:	dc800615 	stw	r18,24(sp)
   2333c:	dc400515 	stw	r17,20(sp)
   23340:	dc000415 	stw	r16,16(sp)
   23344:	d9400015 	stw	r5,0(sp)
   23348:	2027883a 	mov	r19,r4
   2334c:	15007d16 	blt	r2,r20,23544 <quorem+0x234>
   23350:	a0800104 	addi	r2,r20,4
   23354:	1085883a 	add	r2,r2,r2
   23358:	1085883a 	add	r2,r2,r2
   2335c:	28ad883a 	add	r22,r5,r2
   23360:	2085883a 	add	r2,r4,r2
   23364:	10800017 	ldw	r2,0(r2)
   23368:	b1400017 	ldw	r5,0(r22)
   2336c:	a53fffc4 	addi	r20,r20,-1
   23370:	1009883a 	mov	r4,r2
   23374:	29400044 	addi	r5,r5,1
   23378:	d8800115 	stw	r2,4(sp)
   2337c:	002a1c40 	call	2a1c4 <__udivsi3>
   23380:	1025883a 	mov	r18,r2
   23384:	d8800017 	ldw	r2,0(sp)
   23388:	9f000504 	addi	fp,r19,20
   2338c:	14000504 	addi	r16,r2,20
   23390:	90003626 	beq	r18,zero,2346c <quorem+0x15c>
   23394:	802b883a 	mov	r21,r16
   23398:	e023883a 	mov	r17,fp
   2339c:	0007883a 	mov	r3,zero
   233a0:	002f883a 	mov	r23,zero
   233a4:	a9800017 	ldw	r6,0(r21)
   233a8:	900b883a 	mov	r5,r18
   233ac:	d8c00315 	stw	r3,12(sp)
   233b0:	313fffcc 	andi	r4,r6,65535
   233b4:	d9800215 	stw	r6,8(sp)
   233b8:	0020eb40 	call	20eb4 <__mulsi3>
   233bc:	d9800217 	ldw	r6,8(sp)
   233c0:	d8c00317 	ldw	r3,12(sp)
   233c4:	900b883a 	mov	r5,r18
   233c8:	3008d43a 	srli	r4,r6,16
   233cc:	1887883a 	add	r3,r3,r2
   233d0:	d8c00315 	stw	r3,12(sp)
   233d4:	0020eb40 	call	20eb4 <__mulsi3>
   233d8:	89400017 	ldw	r5,0(r17)
   233dc:	d8c00317 	ldw	r3,12(sp)
   233e0:	ad400104 	addi	r21,r21,4
   233e4:	293fffcc 	andi	r4,r5,65535
   233e8:	1810d43a 	srli	r8,r3,16
   233ec:	25c9883a 	add	r4,r4,r23
   233f0:	18ffffcc 	andi	r3,r3,65535
   233f4:	20c9c83a 	sub	r4,r4,r3
   233f8:	280cd43a 	srli	r6,r5,16
   233fc:	4085883a 	add	r2,r8,r2
   23400:	2007d43a 	srai	r3,r4,16
   23404:	117fffcc 	andi	r5,r2,65535
   23408:	314bc83a 	sub	r5,r6,r5
   2340c:	28cb883a 	add	r5,r5,r3
   23410:	8940008d 	sth	r5,2(r17)
   23414:	8900000d 	sth	r4,0(r17)
   23418:	1006d43a 	srli	r3,r2,16
   2341c:	282fd43a 	srai	r23,r5,16
   23420:	8c400104 	addi	r17,r17,4
   23424:	b57fdf2e 	bgeu	r22,r21,233a4 <quorem+0x94>
   23428:	d8c00117 	ldw	r3,4(sp)
   2342c:	18000f1e 	bne	r3,zero,2346c <quorem+0x15c>
   23430:	a0800144 	addi	r2,r20,5
   23434:	1085883a 	add	r2,r2,r2
   23438:	1085883a 	add	r2,r2,r2
   2343c:	9887883a 	add	r3,r19,r2
   23440:	18bfff04 	addi	r2,r3,-4
   23444:	e080082e 	bgeu	fp,r2,23468 <quorem+0x158>
   23448:	18ffff17 	ldw	r3,-4(r3)
   2344c:	18000326 	beq	r3,zero,2345c <quorem+0x14c>
   23450:	00000506 	br	23468 <quorem+0x158>
   23454:	10c00017 	ldw	r3,0(r2)
   23458:	1800031e 	bne	r3,zero,23468 <quorem+0x158>
   2345c:	10bfff04 	addi	r2,r2,-4
   23460:	a53fffc4 	addi	r20,r20,-1
   23464:	e0bffb36 	bltu	fp,r2,23454 <quorem+0x144>
   23468:	9d000415 	stw	r20,16(r19)
   2346c:	d9400017 	ldw	r5,0(sp)
   23470:	9809883a 	mov	r4,r19
   23474:	00272b00 	call	272b0 <__mcmp>
   23478:	10002516 	blt	r2,zero,23510 <quorem+0x200>
   2347c:	94800044 	addi	r18,r18,1
   23480:	e007883a 	mov	r3,fp
   23484:	000d883a 	mov	r6,zero
   23488:	18800017 	ldw	r2,0(r3)
   2348c:	82000017 	ldw	r8,0(r16)
   23490:	84000104 	addi	r16,r16,4
   23494:	11ffffcc 	andi	r7,r2,65535
   23498:	413fffcc 	andi	r4,r8,65535
   2349c:	398d883a 	add	r6,r7,r6
   234a0:	310fc83a 	sub	r7,r6,r4
   234a4:	4010d43a 	srli	r8,r8,16
   234a8:	100cd43a 	srli	r6,r2,16
   234ac:	3809d43a 	srai	r4,r7,16
   234b0:	19c0000d 	sth	r7,0(r3)
   234b4:	320dc83a 	sub	r6,r6,r8
   234b8:	310d883a 	add	r6,r6,r4
   234bc:	1980008d 	sth	r6,2(r3)
   234c0:	300dd43a 	srai	r6,r6,16
   234c4:	18c00104 	addi	r3,r3,4
   234c8:	b43fef2e 	bgeu	r22,r16,23488 <quorem+0x178>
   234cc:	a0800144 	addi	r2,r20,5
   234d0:	1085883a 	add	r2,r2,r2
   234d4:	1085883a 	add	r2,r2,r2
   234d8:	9885883a 	add	r2,r19,r2
   234dc:	10c00017 	ldw	r3,0(r2)
   234e0:	18000b1e 	bne	r3,zero,23510 <quorem+0x200>
   234e4:	10ffff04 	addi	r3,r2,-4
   234e8:	e0c0082e 	bgeu	fp,r3,2350c <quorem+0x1fc>
   234ec:	10bfff17 	ldw	r2,-4(r2)
   234f0:	10000326 	beq	r2,zero,23500 <quorem+0x1f0>
   234f4:	00000506 	br	2350c <quorem+0x1fc>
   234f8:	18800017 	ldw	r2,0(r3)
   234fc:	1000031e 	bne	r2,zero,2350c <quorem+0x1fc>
   23500:	18ffff04 	addi	r3,r3,-4
   23504:	a53fffc4 	addi	r20,r20,-1
   23508:	e0fffb36 	bltu	fp,r3,234f8 <quorem+0x1e8>
   2350c:	9d000415 	stw	r20,16(r19)
   23510:	9005883a 	mov	r2,r18
   23514:	dfc00d17 	ldw	ra,52(sp)
   23518:	df000c17 	ldw	fp,48(sp)
   2351c:	ddc00b17 	ldw	r23,44(sp)
   23520:	dd800a17 	ldw	r22,40(sp)
   23524:	dd400917 	ldw	r21,36(sp)
   23528:	dd000817 	ldw	r20,32(sp)
   2352c:	dcc00717 	ldw	r19,28(sp)
   23530:	dc800617 	ldw	r18,24(sp)
   23534:	dc400517 	ldw	r17,20(sp)
   23538:	dc000417 	ldw	r16,16(sp)
   2353c:	dec00e04 	addi	sp,sp,56
   23540:	f800283a 	ret
   23544:	0005883a 	mov	r2,zero
   23548:	003ff206 	br	23514 <quorem+0x204>

0002354c <_dtoa_r>:
   2354c:	20801017 	ldw	r2,64(r4)
   23550:	deffdf04 	addi	sp,sp,-132
   23554:	dcc01a15 	stw	r19,104(sp)
   23558:	dc801915 	stw	r18,100(sp)
   2355c:	dc401815 	stw	r17,96(sp)
   23560:	dc001715 	stw	r16,92(sp)
   23564:	dfc02015 	stw	ra,128(sp)
   23568:	df001f15 	stw	fp,124(sp)
   2356c:	ddc01e15 	stw	r23,120(sp)
   23570:	dd801d15 	stw	r22,116(sp)
   23574:	dd401c15 	stw	r21,112(sp)
   23578:	dd001b15 	stw	r20,108(sp)
   2357c:	d9400315 	stw	r5,12(sp)
   23580:	d9c00415 	stw	r7,16(sp)
   23584:	2021883a 	mov	r16,r4
   23588:	3025883a 	mov	r18,r6
   2358c:	dcc02317 	ldw	r19,140(sp)
   23590:	3023883a 	mov	r17,r6
   23594:	10000826 	beq	r2,zero,235b8 <_dtoa_r+0x6c>
   23598:	20c01117 	ldw	r3,68(r4)
   2359c:	01800044 	movi	r6,1
   235a0:	100b883a 	mov	r5,r2
   235a4:	30cc983a 	sll	r6,r6,r3
   235a8:	10c00115 	stw	r3,4(r2)
   235ac:	11800215 	stw	r6,8(r2)
   235b0:	0026a0c0 	call	26a0c <_Bfree>
   235b4:	80001015 	stw	zero,64(r16)
   235b8:	90002f16 	blt	r18,zero,23678 <_dtoa_r+0x12c>
   235bc:	98000015 	stw	zero,0(r19)
   235c0:	90dffc2c 	andhi	r3,r18,32752
   235c4:	009ffc34 	movhi	r2,32752
   235c8:	18801c26 	beq	r3,r2,2363c <_dtoa_r+0xf0>
   235cc:	d9000317 	ldw	r4,12(sp)
   235d0:	880b883a 	mov	r5,r17
   235d4:	000d883a 	mov	r6,zero
   235d8:	000f883a 	mov	r7,zero
   235dc:	0029c040 	call	29c04 <__eqdf2>
   235e0:	10002c1e 	bne	r2,zero,23694 <_dtoa_r+0x148>
   235e4:	d9002217 	ldw	r4,136(sp)
   235e8:	d9c02417 	ldw	r7,144(sp)
   235ec:	00800044 	movi	r2,1
   235f0:	20800015 	stw	r2,0(r4)
   235f4:	38019426 	beq	r7,zero,23c48 <_dtoa_r+0x6fc>
   235f8:	008000f4 	movhi	r2,3
   235fc:	10b48444 	addi	r2,r2,-11759
   23600:	38800015 	stw	r2,0(r7)
   23604:	15ffffc4 	addi	r23,r2,-1
   23608:	b805883a 	mov	r2,r23
   2360c:	dfc02017 	ldw	ra,128(sp)
   23610:	df001f17 	ldw	fp,124(sp)
   23614:	ddc01e17 	ldw	r23,120(sp)
   23618:	dd801d17 	ldw	r22,116(sp)
   2361c:	dd401c17 	ldw	r21,112(sp)
   23620:	dd001b17 	ldw	r20,108(sp)
   23624:	dcc01a17 	ldw	r19,104(sp)
   23628:	dc801917 	ldw	r18,100(sp)
   2362c:	dc401817 	ldw	r17,96(sp)
   23630:	dc001717 	ldw	r16,92(sp)
   23634:	dec02104 	addi	sp,sp,132
   23638:	f800283a 	ret
   2363c:	d8c02217 	ldw	r3,136(sp)
   23640:	d9000317 	ldw	r4,12(sp)
   23644:	0089c3c4 	movi	r2,9999
   23648:	18800015 	stw	r2,0(r3)
   2364c:	20016c26 	beq	r4,zero,23c00 <_dtoa_r+0x6b4>
   23650:	05c000f4 	movhi	r23,3
   23654:	bdf49004 	addi	r23,r23,-11712
   23658:	d9c02417 	ldw	r7,144(sp)
   2365c:	383fea26 	beq	r7,zero,23608 <_dtoa_r+0xbc>
   23660:	b88000c7 	ldb	r2,3(r23)
   23664:	10016d1e 	bne	r2,zero,23c1c <_dtoa_r+0x6d0>
   23668:	b88000c4 	addi	r2,r23,3
   2366c:	d8c02417 	ldw	r3,144(sp)
   23670:	18800015 	stw	r2,0(r3)
   23674:	003fe406 	br	23608 <_dtoa_r+0xbc>
   23678:	04600034 	movhi	r17,32768
   2367c:	8c7fffc4 	addi	r17,r17,-1
   23680:	9462703a 	and	r17,r18,r17
   23684:	00800044 	movi	r2,1
   23688:	98800015 	stw	r2,0(r19)
   2368c:	8825883a 	mov	r18,r17
   23690:	003fcb06 	br	235c0 <_dtoa_r+0x74>
   23694:	d9400317 	ldw	r5,12(sp)
   23698:	9028d53a 	srli	r20,r18,20
   2369c:	d8800204 	addi	r2,sp,8
   236a0:	d8800015 	stw	r2,0(sp)
   236a4:	8009883a 	mov	r4,r16
   236a8:	880d883a 	mov	r6,r17
   236ac:	d9c00104 	addi	r7,sp,4
   236b0:	00276580 	call	27658 <__d2b>
   236b4:	a501ffcc 	andi	r20,r20,2047
   236b8:	1039883a 	mov	fp,r2
   236bc:	a001591e 	bne	r20,zero,23c24 <_dtoa_r+0x6d8>
   236c0:	dd400217 	ldw	r21,8(sp)
   236c4:	dd000117 	ldw	r20,4(sp)
   236c8:	00befbc4 	movi	r2,-1041
   236cc:	ad29883a 	add	r20,r21,r20
   236d0:	a082d216 	blt	r20,r2,2421c <_dtoa_r+0xcd0>
   236d4:	d8c00317 	ldw	r3,12(sp)
   236d8:	013f0384 	movi	r4,-1010
   236dc:	2509c83a 	sub	r4,r4,r20
   236e0:	a0810484 	addi	r2,r20,1042
   236e4:	9124983a 	sll	r18,r18,r4
   236e8:	1884d83a 	srl	r2,r3,r2
   236ec:	9088b03a 	or	r4,r18,r2
   236f0:	0029f880 	call	29f88 <__floatunsidf>
   236f4:	1009883a 	mov	r4,r2
   236f8:	017f8434 	movhi	r5,65040
   236fc:	00800044 	movi	r2,1
   23700:	194b883a 	add	r5,r3,r5
   23704:	a53fffc4 	addi	r20,r20,-1
   23708:	d8800f15 	stw	r2,60(sp)
   2370c:	000d883a 	mov	r6,zero
   23710:	01cffe34 	movhi	r7,16376
   23714:	002970c0 	call	2970c <__subdf3>
   23718:	1009883a 	mov	r4,r2
   2371c:	180b883a 	mov	r5,r3
   23720:	0198dbf4 	movhi	r6,25455
   23724:	3190d844 	addi	r6,r6,17249
   23728:	01cff4f4 	movhi	r7,16339
   2372c:	39e1e9c4 	addi	r7,r7,-30809
   23730:	002976c0 	call	2976c <__muldf3>
   23734:	180b883a 	mov	r5,r3
   23738:	01a2d874 	movhi	r6,35681
   2373c:	31b22cc4 	addi	r6,r6,-14157
   23740:	01cff1f4 	movhi	r7,16327
   23744:	39e28a04 	addi	r7,r7,-30168
   23748:	1009883a 	mov	r4,r2
   2374c:	00296b80 	call	296b8 <__adddf3>
   23750:	a009883a 	mov	r4,r20
   23754:	1027883a 	mov	r19,r2
   23758:	1825883a 	mov	r18,r3
   2375c:	0029de00 	call	29de0 <__floatsidf>
   23760:	1009883a 	mov	r4,r2
   23764:	180b883a 	mov	r5,r3
   23768:	019427f4 	movhi	r6,20639
   2376c:	319e7ec4 	addi	r6,r6,31227
   23770:	01cff4f4 	movhi	r7,16339
   23774:	39d104c4 	addi	r7,r7,17427
   23778:	002976c0 	call	2976c <__muldf3>
   2377c:	9809883a 	mov	r4,r19
   23780:	900b883a 	mov	r5,r18
   23784:	100d883a 	mov	r6,r2
   23788:	180f883a 	mov	r7,r3
   2378c:	00296b80 	call	296b8 <__adddf3>
   23790:	1009883a 	mov	r4,r2
   23794:	180b883a 	mov	r5,r3
   23798:	1027883a 	mov	r19,r2
   2379c:	1825883a 	mov	r18,r3
   237a0:	0029eb40 	call	29eb4 <__fixdfsi>
   237a4:	9809883a 	mov	r4,r19
   237a8:	900b883a 	mov	r5,r18
   237ac:	000d883a 	mov	r6,zero
   237b0:	000f883a 	mov	r7,zero
   237b4:	d8800615 	stw	r2,24(sp)
   237b8:	0029d840 	call	29d84 <__ltdf2>
   237bc:	10027e16 	blt	r2,zero,241b8 <_dtoa_r+0xc6c>
   237c0:	d8c00617 	ldw	r3,24(sp)
   237c4:	00800584 	movi	r2,22
   237c8:	10c26c36 	bltu	r2,r3,2417c <_dtoa_r+0xc30>
   237cc:	180490fa 	slli	r2,r3,3
   237d0:	00c000f4 	movhi	r3,3
   237d4:	18f4b504 	addi	r3,r3,-11564
   237d8:	d9800317 	ldw	r6,12(sp)
   237dc:	1885883a 	add	r2,r3,r2
   237e0:	11000017 	ldw	r4,0(r2)
   237e4:	11400117 	ldw	r5,4(r2)
   237e8:	880f883a 	mov	r7,r17
   237ec:	0029cbc0 	call	29cbc <__gtdf2>
   237f0:	00828f0e 	bge	zero,r2,24230 <_dtoa_r+0xce4>
   237f4:	d8800617 	ldw	r2,24(sp)
   237f8:	d8000d15 	stw	zero,52(sp)
   237fc:	10bfffc4 	addi	r2,r2,-1
   23800:	d8800615 	stw	r2,24(sp)
   23804:	ad29c83a 	sub	r20,r21,r20
   23808:	a53fffc4 	addi	r20,r20,-1
   2380c:	a0026616 	blt	r20,zero,241a8 <_dtoa_r+0xc5c>
   23810:	dd000715 	stw	r20,28(sp)
   23814:	d8000815 	stw	zero,32(sp)
   23818:	d8800617 	ldw	r2,24(sp)
   2381c:	10025a16 	blt	r2,zero,24188 <_dtoa_r+0xc3c>
   23820:	d8c00717 	ldw	r3,28(sp)
   23824:	d8800b15 	stw	r2,44(sp)
   23828:	d8000a15 	stw	zero,40(sp)
   2382c:	1887883a 	add	r3,r3,r2
   23830:	d8c00715 	stw	r3,28(sp)
   23834:	d9c00417 	ldw	r7,16(sp)
   23838:	00800244 	movi	r2,9
   2383c:	11c10536 	bltu	r2,r7,23c54 <_dtoa_r+0x708>
   23840:	00800144 	movi	r2,5
   23844:	11c4c60e 	bge	r2,r7,24b60 <_dtoa_r+0x1614>
   23848:	39ffff04 	addi	r7,r7,-4
   2384c:	d9c00415 	stw	r7,16(sp)
   23850:	0027883a 	mov	r19,zero
   23854:	d9c00417 	ldw	r7,16(sp)
   23858:	008000c4 	movi	r2,3
   2385c:	3883a226 	beq	r7,r2,246e8 <_dtoa_r+0x119c>
   23860:	11c2bc16 	blt	r2,r7,24354 <_dtoa_r+0xe08>
   23864:	00800084 	movi	r2,2
   23868:	3880fb1e 	bne	r7,r2,23c58 <_dtoa_r+0x70c>
   2386c:	d8000c15 	stw	zero,48(sp)
   23870:	d9002117 	ldw	r4,132(sp)
   23874:	0103ae0e 	bge	zero,r4,24730 <_dtoa_r+0x11e4>
   23878:	2025883a 	mov	r18,r4
   2387c:	d9000e15 	stw	r4,56(sp)
   23880:	d9000915 	stw	r4,36(sp)
   23884:	80001115 	stw	zero,68(r16)
   23888:	008005c4 	movi	r2,23
   2388c:	1484b22e 	bgeu	r2,r18,24b58 <_dtoa_r+0x160c>
   23890:	00c00044 	movi	r3,1
   23894:	00800104 	movi	r2,4
   23898:	1085883a 	add	r2,r2,r2
   2389c:	11000504 	addi	r4,r2,20
   238a0:	180b883a 	mov	r5,r3
   238a4:	18c00044 	addi	r3,r3,1
   238a8:	913ffb2e 	bgeu	r18,r4,23898 <_dtoa_r+0x34c>
   238ac:	81401115 	stw	r5,68(r16)
   238b0:	8009883a 	mov	r4,r16
   238b4:	00269640 	call	26964 <_Balloc>
   238b8:	102f883a 	mov	r23,r2
   238bc:	80801015 	stw	r2,64(r16)
   238c0:	00800384 	movi	r2,14
   238c4:	1480f036 	bltu	r2,r18,23c88 <_dtoa_r+0x73c>
   238c8:	9800ef26 	beq	r19,zero,23c88 <_dtoa_r+0x73c>
   238cc:	d8800617 	ldw	r2,24(sp)
   238d0:	00839c0e 	bge	zero,r2,24744 <_dtoa_r+0x11f8>
   238d4:	d8c00617 	ldw	r3,24(sp)
   238d8:	108003cc 	andi	r2,r2,15
   238dc:	100490fa 	slli	r2,r2,3
   238e0:	182bd13a 	srai	r21,r3,4
   238e4:	00c000f4 	movhi	r3,3
   238e8:	18f4b504 	addi	r3,r3,-11564
   238ec:	1885883a 	add	r2,r3,r2
   238f0:	a8c0040c 	andi	r3,r21,16
   238f4:	12800017 	ldw	r10,0(r2)
   238f8:	15800117 	ldw	r22,4(r2)
   238fc:	18038726 	beq	r3,zero,2471c <_dtoa_r+0x11d0>
   23900:	008000f4 	movhi	r2,3
   23904:	10b4ab04 	addi	r2,r2,-11604
   23908:	11800817 	ldw	r6,32(r2)
   2390c:	11c00917 	ldw	r7,36(r2)
   23910:	d9000317 	ldw	r4,12(sp)
   23914:	880b883a 	mov	r5,r17
   23918:	da801515 	stw	r10,84(sp)
   2391c:	0029a500 	call	29a50 <__divdf3>
   23920:	da801517 	ldw	r10,84(sp)
   23924:	d8801015 	stw	r2,64(sp)
   23928:	1829883a 	mov	r20,r3
   2392c:	ad4003cc 	andi	r21,r21,15
   23930:	048000c4 	movi	r18,3
   23934:	a8001126 	beq	r21,zero,2397c <_dtoa_r+0x430>
   23938:	04c000f4 	movhi	r19,3
   2393c:	9cf4ab04 	addi	r19,r19,-11604
   23940:	5005883a 	mov	r2,r10
   23944:	b007883a 	mov	r3,r22
   23948:	a980004c 	andi	r6,r21,1
   2394c:	1009883a 	mov	r4,r2
   23950:	a82bd07a 	srai	r21,r21,1
   23954:	180b883a 	mov	r5,r3
   23958:	30000426 	beq	r6,zero,2396c <_dtoa_r+0x420>
   2395c:	99800017 	ldw	r6,0(r19)
   23960:	99c00117 	ldw	r7,4(r19)
   23964:	94800044 	addi	r18,r18,1
   23968:	002976c0 	call	2976c <__muldf3>
   2396c:	9cc00204 	addi	r19,r19,8
   23970:	a83ff51e 	bne	r21,zero,23948 <_dtoa_r+0x3fc>
   23974:	1015883a 	mov	r10,r2
   23978:	182d883a 	mov	r22,r3
   2397c:	d9001017 	ldw	r4,64(sp)
   23980:	a00b883a 	mov	r5,r20
   23984:	500d883a 	mov	r6,r10
   23988:	b00f883a 	mov	r7,r22
   2398c:	0029a500 	call	29a50 <__divdf3>
   23990:	1027883a 	mov	r19,r2
   23994:	1829883a 	mov	r20,r3
   23998:	d8c00d17 	ldw	r3,52(sp)
   2399c:	18000626 	beq	r3,zero,239b8 <_dtoa_r+0x46c>
   239a0:	9809883a 	mov	r4,r19
   239a4:	a00b883a 	mov	r5,r20
   239a8:	000d883a 	mov	r6,zero
   239ac:	01cffc34 	movhi	r7,16368
   239b0:	0029d840 	call	29d84 <__ltdf2>
   239b4:	10040e16 	blt	r2,zero,249f0 <_dtoa_r+0x14a4>
   239b8:	9009883a 	mov	r4,r18
   239bc:	0029de00 	call	29de0 <__floatsidf>
   239c0:	1009883a 	mov	r4,r2
   239c4:	180b883a 	mov	r5,r3
   239c8:	980d883a 	mov	r6,r19
   239cc:	a00f883a 	mov	r7,r20
   239d0:	002976c0 	call	2976c <__muldf3>
   239d4:	1009883a 	mov	r4,r2
   239d8:	180b883a 	mov	r5,r3
   239dc:	000d883a 	mov	r6,zero
   239e0:	01d00734 	movhi	r7,16412
   239e4:	00296b80 	call	296b8 <__adddf3>
   239e8:	057f3034 	movhi	r21,64704
   239ec:	1d6b883a 	add	r21,r3,r21
   239f0:	d8c00917 	ldw	r3,36(sp)
   239f4:	1025883a 	mov	r18,r2
   239f8:	18031f26 	beq	r3,zero,24678 <_dtoa_r+0x112c>
   239fc:	d8800617 	ldw	r2,24(sp)
   23a00:	dac00917 	ldw	r11,36(sp)
   23a04:	d8801315 	stw	r2,76(sp)
   23a08:	d8c00c17 	ldw	r3,48(sp)
   23a0c:	18039026 	beq	r3,zero,24850 <_dtoa_r+0x1304>
   23a10:	58bfffc4 	addi	r2,r11,-1
   23a14:	100490fa 	slli	r2,r2,3
   23a18:	00c000f4 	movhi	r3,3
   23a1c:	18f4b504 	addi	r3,r3,-11564
   23a20:	0009883a 	mov	r4,zero
   23a24:	1885883a 	add	r2,r3,r2
   23a28:	11800017 	ldw	r6,0(r2)
   23a2c:	11c00117 	ldw	r7,4(r2)
   23a30:	014ff834 	movhi	r5,16352
   23a34:	dac01615 	stw	r11,88(sp)
   23a38:	0029a500 	call	29a50 <__divdf3>
   23a3c:	900d883a 	mov	r6,r18
   23a40:	a80f883a 	mov	r7,r21
   23a44:	1009883a 	mov	r4,r2
   23a48:	180b883a 	mov	r5,r3
   23a4c:	002970c0 	call	2970c <__subdf3>
   23a50:	a00b883a 	mov	r5,r20
   23a54:	9809883a 	mov	r4,r19
   23a58:	182b883a 	mov	r21,r3
   23a5c:	d8801015 	stw	r2,64(sp)
   23a60:	0029eb40 	call	29eb4 <__fixdfsi>
   23a64:	1009883a 	mov	r4,r2
   23a68:	d8801515 	stw	r2,84(sp)
   23a6c:	0029de00 	call	29de0 <__floatsidf>
   23a70:	9809883a 	mov	r4,r19
   23a74:	a00b883a 	mov	r5,r20
   23a78:	100d883a 	mov	r6,r2
   23a7c:	180f883a 	mov	r7,r3
   23a80:	002970c0 	call	2970c <__subdf3>
   23a84:	da401517 	ldw	r9,84(sp)
   23a88:	d9001017 	ldw	r4,64(sp)
   23a8c:	a80b883a 	mov	r5,r21
   23a90:	4d000c04 	addi	r20,r9,48
   23a94:	bd000005 	stb	r20,0(r23)
   23a98:	100d883a 	mov	r6,r2
   23a9c:	180f883a 	mov	r7,r3
   23aa0:	bd800044 	addi	r22,r23,1
   23aa4:	1025883a 	mov	r18,r2
   23aa8:	1827883a 	mov	r19,r3
   23aac:	0029cbc0 	call	29cbc <__gtdf2>
   23ab0:	00842216 	blt	zero,r2,24b3c <_dtoa_r+0x15f0>
   23ab4:	0009883a 	mov	r4,zero
   23ab8:	014ffc34 	movhi	r5,16368
   23abc:	900d883a 	mov	r6,r18
   23ac0:	980f883a 	mov	r7,r19
   23ac4:	002970c0 	call	2970c <__subdf3>
   23ac8:	d9001017 	ldw	r4,64(sp)
   23acc:	a80b883a 	mov	r5,r21
   23ad0:	100d883a 	mov	r6,r2
   23ad4:	180f883a 	mov	r7,r3
   23ad8:	0029cbc0 	call	29cbc <__gtdf2>
   23adc:	dac01617 	ldw	r11,88(sp)
   23ae0:	00841316 	blt	zero,r2,24b30 <_dtoa_r+0x15e4>
   23ae4:	00800044 	movi	r2,1
   23ae8:	12c0670e 	bge	r2,r11,23c88 <_dtoa_r+0x73c>
   23aec:	bad7883a 	add	r11,r23,r11
   23af0:	df001115 	stw	fp,68(sp)
   23af4:	dc401215 	stw	r17,72(sp)
   23af8:	5839883a 	mov	fp,r11
   23afc:	dc401017 	ldw	r17,64(sp)
   23b00:	00000806 	br	23b24 <_dtoa_r+0x5d8>
   23b04:	002970c0 	call	2970c <__subdf3>
   23b08:	1009883a 	mov	r4,r2
   23b0c:	180b883a 	mov	r5,r3
   23b10:	880d883a 	mov	r6,r17
   23b14:	a80f883a 	mov	r7,r21
   23b18:	0029d840 	call	29d84 <__ltdf2>
   23b1c:	1003ee16 	blt	r2,zero,24ad8 <_dtoa_r+0x158c>
   23b20:	b703f126 	beq	r22,fp,24ae8 <_dtoa_r+0x159c>
   23b24:	8809883a 	mov	r4,r17
   23b28:	a80b883a 	mov	r5,r21
   23b2c:	000d883a 	mov	r6,zero
   23b30:	01d00934 	movhi	r7,16420
   23b34:	002976c0 	call	2976c <__muldf3>
   23b38:	000d883a 	mov	r6,zero
   23b3c:	01d00934 	movhi	r7,16420
   23b40:	9009883a 	mov	r4,r18
   23b44:	980b883a 	mov	r5,r19
   23b48:	1023883a 	mov	r17,r2
   23b4c:	182b883a 	mov	r21,r3
   23b50:	002976c0 	call	2976c <__muldf3>
   23b54:	180b883a 	mov	r5,r3
   23b58:	1009883a 	mov	r4,r2
   23b5c:	1825883a 	mov	r18,r3
   23b60:	1027883a 	mov	r19,r2
   23b64:	0029eb40 	call	29eb4 <__fixdfsi>
   23b68:	1009883a 	mov	r4,r2
   23b6c:	1029883a 	mov	r20,r2
   23b70:	0029de00 	call	29de0 <__floatsidf>
   23b74:	9809883a 	mov	r4,r19
   23b78:	900b883a 	mov	r5,r18
   23b7c:	100d883a 	mov	r6,r2
   23b80:	180f883a 	mov	r7,r3
   23b84:	002970c0 	call	2970c <__subdf3>
   23b88:	a5000c04 	addi	r20,r20,48
   23b8c:	b5000005 	stb	r20,0(r22)
   23b90:	1009883a 	mov	r4,r2
   23b94:	180b883a 	mov	r5,r3
   23b98:	880d883a 	mov	r6,r17
   23b9c:	a80f883a 	mov	r7,r21
   23ba0:	1025883a 	mov	r18,r2
   23ba4:	1827883a 	mov	r19,r3
   23ba8:	0029d840 	call	29d84 <__ltdf2>
   23bac:	b5800044 	addi	r22,r22,1
   23bb0:	0009883a 	mov	r4,zero
   23bb4:	014ffc34 	movhi	r5,16368
   23bb8:	900d883a 	mov	r6,r18
   23bbc:	980f883a 	mov	r7,r19
   23bc0:	103fd00e 	bge	r2,zero,23b04 <_dtoa_r+0x5b8>
   23bc4:	d9001317 	ldw	r4,76(sp)
   23bc8:	df001117 	ldw	fp,68(sp)
   23bcc:	d9000615 	stw	r4,24(sp)
   23bd0:	8009883a 	mov	r4,r16
   23bd4:	e00b883a 	mov	r5,fp
   23bd8:	0026a0c0 	call	26a0c <_Bfree>
   23bdc:	d9c00617 	ldw	r7,24(sp)
   23be0:	d8c02217 	ldw	r3,136(sp)
   23be4:	d9002417 	ldw	r4,144(sp)
   23be8:	b0000005 	stb	zero,0(r22)
   23bec:	38800044 	addi	r2,r7,1
   23bf0:	18800015 	stw	r2,0(r3)
   23bf4:	203e8426 	beq	r4,zero,23608 <_dtoa_r+0xbc>
   23bf8:	25800015 	stw	r22,0(r4)
   23bfc:	003e8206 	br	23608 <_dtoa_r+0xbc>
   23c00:	00800434 	movhi	r2,16
   23c04:	10bfffc4 	addi	r2,r2,-1
   23c08:	90a4703a 	and	r18,r18,r2
   23c0c:	903e901e 	bne	r18,zero,23650 <_dtoa_r+0x104>
   23c10:	05c000f4 	movhi	r23,3
   23c14:	bdf48d04 	addi	r23,r23,-11724
   23c18:	003e8f06 	br	23658 <_dtoa_r+0x10c>
   23c1c:	b8800204 	addi	r2,r23,8
   23c20:	003e9206 	br	2366c <_dtoa_r+0x120>
   23c24:	01400434 	movhi	r5,16
   23c28:	297fffc4 	addi	r5,r5,-1
   23c2c:	894a703a 	and	r5,r17,r5
   23c30:	d9000317 	ldw	r4,12(sp)
   23c34:	294ffc34 	orhi	r5,r5,16368
   23c38:	a53f0044 	addi	r20,r20,-1023
   23c3c:	dd400217 	ldw	r21,8(sp)
   23c40:	d8000f15 	stw	zero,60(sp)
   23c44:	003eb106 	br	2370c <_dtoa_r+0x1c0>
   23c48:	05c000f4 	movhi	r23,3
   23c4c:	bdf48404 	addi	r23,r23,-11760
   23c50:	003e6d06 	br	23608 <_dtoa_r+0xbc>
   23c54:	d8000415 	stw	zero,16(sp)
   23c58:	80001115 	stw	zero,68(r16)
   23c5c:	8009883a 	mov	r4,r16
   23c60:	000b883a 	mov	r5,zero
   23c64:	00269640 	call	26964 <_Balloc>
   23c68:	01ffffc4 	movi	r7,-1
   23c6c:	102f883a 	mov	r23,r2
   23c70:	80801015 	stw	r2,64(r16)
   23c74:	00800044 	movi	r2,1
   23c78:	d9c00915 	stw	r7,36(sp)
   23c7c:	d8002115 	stw	zero,132(sp)
   23c80:	d9c00e15 	stw	r7,56(sp)
   23c84:	d8800c15 	stw	r2,48(sp)
   23c88:	d8800117 	ldw	r2,4(sp)
   23c8c:	10008b16 	blt	r2,zero,23ebc <_dtoa_r+0x970>
   23c90:	d9000617 	ldw	r4,24(sp)
   23c94:	00c00384 	movi	r3,14
   23c98:	19008816 	blt	r3,r4,23ebc <_dtoa_r+0x970>
   23c9c:	200490fa 	slli	r2,r4,3
   23ca0:	d9c02117 	ldw	r7,132(sp)
   23ca4:	00c000f4 	movhi	r3,3
   23ca8:	18f4b504 	addi	r3,r3,-11564
   23cac:	1885883a 	add	r2,r3,r2
   23cb0:	14800017 	ldw	r18,0(r2)
   23cb4:	14c00117 	ldw	r19,4(r2)
   23cb8:	3801c916 	blt	r7,zero,243e0 <_dtoa_r+0xe94>
   23cbc:	d9000317 	ldw	r4,12(sp)
   23cc0:	900d883a 	mov	r6,r18
   23cc4:	980f883a 	mov	r7,r19
   23cc8:	880b883a 	mov	r5,r17
   23ccc:	0029a500 	call	29a50 <__divdf3>
   23cd0:	180b883a 	mov	r5,r3
   23cd4:	1009883a 	mov	r4,r2
   23cd8:	0029eb40 	call	29eb4 <__fixdfsi>
   23cdc:	1009883a 	mov	r4,r2
   23ce0:	102b883a 	mov	r21,r2
   23ce4:	0029de00 	call	29de0 <__floatsidf>
   23ce8:	1009883a 	mov	r4,r2
   23cec:	180b883a 	mov	r5,r3
   23cf0:	900d883a 	mov	r6,r18
   23cf4:	980f883a 	mov	r7,r19
   23cf8:	002976c0 	call	2976c <__muldf3>
   23cfc:	d9000317 	ldw	r4,12(sp)
   23d00:	880b883a 	mov	r5,r17
   23d04:	100d883a 	mov	r6,r2
   23d08:	180f883a 	mov	r7,r3
   23d0c:	002970c0 	call	2970c <__subdf3>
   23d10:	d9c00917 	ldw	r7,36(sp)
   23d14:	1009883a 	mov	r4,r2
   23d18:	a8800c04 	addi	r2,r21,48
   23d1c:	b8800005 	stb	r2,0(r23)
   23d20:	01800044 	movi	r6,1
   23d24:	180b883a 	mov	r5,r3
   23d28:	2005883a 	mov	r2,r4
   23d2c:	bd800044 	addi	r22,r23,1
   23d30:	39803726 	beq	r7,r6,23e10 <_dtoa_r+0x8c4>
   23d34:	000d883a 	mov	r6,zero
   23d38:	01d00934 	movhi	r7,16420
   23d3c:	002976c0 	call	2976c <__muldf3>
   23d40:	1009883a 	mov	r4,r2
   23d44:	180b883a 	mov	r5,r3
   23d48:	000d883a 	mov	r6,zero
   23d4c:	000f883a 	mov	r7,zero
   23d50:	1029883a 	mov	r20,r2
   23d54:	1823883a 	mov	r17,r3
   23d58:	0029c040 	call	29c04 <__eqdf2>
   23d5c:	103f9c26 	beq	r2,zero,23bd0 <_dtoa_r+0x684>
   23d60:	dd400917 	ldw	r21,36(sp)
   23d64:	dc000415 	stw	r16,16(sp)
   23d68:	00000906 	br	23d90 <_dtoa_r+0x844>
   23d6c:	002976c0 	call	2976c <__muldf3>
   23d70:	1009883a 	mov	r4,r2
   23d74:	180b883a 	mov	r5,r3
   23d78:	000d883a 	mov	r6,zero
   23d7c:	000f883a 	mov	r7,zero
   23d80:	1029883a 	mov	r20,r2
   23d84:	1823883a 	mov	r17,r3
   23d88:	0029c040 	call	29c04 <__eqdf2>
   23d8c:	10022926 	beq	r2,zero,24634 <_dtoa_r+0x10e8>
   23d90:	900d883a 	mov	r6,r18
   23d94:	980f883a 	mov	r7,r19
   23d98:	a009883a 	mov	r4,r20
   23d9c:	880b883a 	mov	r5,r17
   23da0:	0029a500 	call	29a50 <__divdf3>
   23da4:	180b883a 	mov	r5,r3
   23da8:	1009883a 	mov	r4,r2
   23dac:	0029eb40 	call	29eb4 <__fixdfsi>
   23db0:	1009883a 	mov	r4,r2
   23db4:	1021883a 	mov	r16,r2
   23db8:	0029de00 	call	29de0 <__floatsidf>
   23dbc:	1009883a 	mov	r4,r2
   23dc0:	180b883a 	mov	r5,r3
   23dc4:	900d883a 	mov	r6,r18
   23dc8:	980f883a 	mov	r7,r19
   23dcc:	002976c0 	call	2976c <__muldf3>
   23dd0:	a009883a 	mov	r4,r20
   23dd4:	880b883a 	mov	r5,r17
   23dd8:	100d883a 	mov	r6,r2
   23ddc:	180f883a 	mov	r7,r3
   23de0:	002970c0 	call	2970c <__subdf3>
   23de4:	82400c04 	addi	r9,r16,48
   23de8:	b2400005 	stb	r9,0(r22)
   23dec:	b5800044 	addi	r22,r22,1
   23df0:	b5d3c83a 	sub	r9,r22,r23
   23df4:	000d883a 	mov	r6,zero
   23df8:	01d00934 	movhi	r7,16420
   23dfc:	1009883a 	mov	r4,r2
   23e00:	180b883a 	mov	r5,r3
   23e04:	aa7fd91e 	bne	r21,r9,23d6c <_dtoa_r+0x820>
   23e08:	802b883a 	mov	r21,r16
   23e0c:	dc000417 	ldw	r16,16(sp)
   23e10:	1009883a 	mov	r4,r2
   23e14:	180b883a 	mov	r5,r3
   23e18:	100d883a 	mov	r6,r2
   23e1c:	180f883a 	mov	r7,r3
   23e20:	00296b80 	call	296b8 <__adddf3>
   23e24:	9009883a 	mov	r4,r18
   23e28:	980b883a 	mov	r5,r19
   23e2c:	100d883a 	mov	r6,r2
   23e30:	180f883a 	mov	r7,r3
   23e34:	1023883a 	mov	r17,r2
   23e38:	1829883a 	mov	r20,r3
   23e3c:	0029d840 	call	29d84 <__ltdf2>
   23e40:	10000816 	blt	r2,zero,23e64 <_dtoa_r+0x918>
   23e44:	9009883a 	mov	r4,r18
   23e48:	980b883a 	mov	r5,r19
   23e4c:	880d883a 	mov	r6,r17
   23e50:	a00f883a 	mov	r7,r20
   23e54:	0029c040 	call	29c04 <__eqdf2>
   23e58:	103f5d1e 	bne	r2,zero,23bd0 <_dtoa_r+0x684>
   23e5c:	ad40004c 	andi	r21,r21,1
   23e60:	a83f5b26 	beq	r21,zero,23bd0 <_dtoa_r+0x684>
   23e64:	b53fffc3 	ldbu	r20,-1(r22)
   23e68:	b0ffff84 	addi	r3,r22,-2
   23e6c:	01400e44 	movi	r5,57
   23e70:	00000306 	br	23e80 <_dtoa_r+0x934>
   23e74:	1d000003 	ldbu	r20,0(r3)
   23e78:	102d883a 	mov	r22,r2
   23e7c:	18ffffc4 	addi	r3,r3,-1
   23e80:	a1003fcc 	andi	r4,r20,255
   23e84:	2100201c 	xori	r4,r4,128
   23e88:	213fe004 	addi	r4,r4,-128
   23e8c:	b0bfffc4 	addi	r2,r22,-1
   23e90:	2142ca1e 	bne	r4,r5,249bc <_dtoa_r+0x1470>
   23e94:	b8bff71e 	bne	r23,r2,23e74 <_dtoa_r+0x928>
   23e98:	d8800617 	ldw	r2,24(sp)
   23e9c:	05000c44 	movi	r20,49
   23ea0:	10800044 	addi	r2,r2,1
   23ea4:	d8800615 	stw	r2,24(sp)
   23ea8:	00800c04 	movi	r2,48
   23eac:	b8800005 	stb	r2,0(r23)
   23eb0:	b805883a 	mov	r2,r23
   23eb4:	15000005 	stb	r20,0(r2)
   23eb8:	003f4506 	br	23bd0 <_dtoa_r+0x684>
   23ebc:	d9c00c17 	ldw	r7,48(sp)
   23ec0:	3800c926 	beq	r7,zero,241e8 <_dtoa_r+0xc9c>
   23ec4:	d9c00417 	ldw	r7,16(sp)
   23ec8:	00c00044 	movi	r3,1
   23ecc:	19c16c0e 	bge	r3,r7,24480 <_dtoa_r+0xf34>
   23ed0:	d9000917 	ldw	r4,36(sp)
   23ed4:	d9c00a17 	ldw	r7,40(sp)
   23ed8:	24ffffc4 	addi	r19,r4,-1
   23edc:	3cc20716 	blt	r7,r19,246fc <_dtoa_r+0x11b0>
   23ee0:	3ce7c83a 	sub	r19,r7,r19
   23ee4:	d9c00917 	ldw	r7,36(sp)
   23ee8:	3802ae16 	blt	r7,zero,249a4 <_dtoa_r+0x1458>
   23eec:	dc800817 	ldw	r18,32(sp)
   23ef0:	d8800917 	ldw	r2,36(sp)
   23ef4:	d8c00817 	ldw	r3,32(sp)
   23ef8:	d9c00717 	ldw	r7,28(sp)
   23efc:	8009883a 	mov	r4,r16
   23f00:	1887883a 	add	r3,r3,r2
   23f04:	388f883a 	add	r7,r7,r2
   23f08:	01400044 	movi	r5,1
   23f0c:	d8c00815 	stw	r3,32(sp)
   23f10:	d9c00715 	stw	r7,28(sp)
   23f14:	0026d940 	call	26d94 <__i2b>
   23f18:	102b883a 	mov	r21,r2
   23f1c:	90000a26 	beq	r18,zero,23f48 <_dtoa_r+0x9fc>
   23f20:	d8800717 	ldw	r2,28(sp)
   23f24:	0080080e 	bge	zero,r2,23f48 <_dtoa_r+0x9fc>
   23f28:	90812b16 	blt	r18,r2,243d8 <_dtoa_r+0xe8c>
   23f2c:	d8c00817 	ldw	r3,32(sp)
   23f30:	d9000717 	ldw	r4,28(sp)
   23f34:	90a5c83a 	sub	r18,r18,r2
   23f38:	1887c83a 	sub	r3,r3,r2
   23f3c:	2089c83a 	sub	r4,r4,r2
   23f40:	d8c00815 	stw	r3,32(sp)
   23f44:	d9000715 	stw	r4,28(sp)
   23f48:	d9c00a17 	ldw	r7,40(sp)
   23f4c:	01c0140e 	bge	zero,r7,23fa0 <_dtoa_r+0xa54>
   23f50:	d8800c17 	ldw	r2,48(sp)
   23f54:	1001de26 	beq	r2,zero,246d0 <_dtoa_r+0x1184>
   23f58:	04c00e0e 	bge	zero,r19,23f94 <_dtoa_r+0xa48>
   23f5c:	a80b883a 	mov	r5,r21
   23f60:	8009883a 	mov	r4,r16
   23f64:	980d883a 	mov	r6,r19
   23f68:	00270280 	call	27028 <__pow5mult>
   23f6c:	e00d883a 	mov	r6,fp
   23f70:	8009883a 	mov	r4,r16
   23f74:	100b883a 	mov	r5,r2
   23f78:	102b883a 	mov	r21,r2
   23f7c:	0026dd00 	call	26dd0 <__multiply>
   23f80:	1029883a 	mov	r20,r2
   23f84:	e00b883a 	mov	r5,fp
   23f88:	8009883a 	mov	r4,r16
   23f8c:	0026a0c0 	call	26a0c <_Bfree>
   23f90:	a039883a 	mov	fp,r20
   23f94:	d8c00a17 	ldw	r3,40(sp)
   23f98:	1ccdc83a 	sub	r6,r3,r19
   23f9c:	3001291e 	bne	r6,zero,24444 <_dtoa_r+0xef8>
   23fa0:	8009883a 	mov	r4,r16
   23fa4:	01400044 	movi	r5,1
   23fa8:	0026d940 	call	26d94 <__i2b>
   23fac:	d9000b17 	ldw	r4,44(sp)
   23fb0:	1029883a 	mov	r20,r2
   23fb4:	0100050e 	bge	zero,r4,23fcc <_dtoa_r+0xa80>
   23fb8:	d9800b17 	ldw	r6,44(sp)
   23fbc:	8009883a 	mov	r4,r16
   23fc0:	100b883a 	mov	r5,r2
   23fc4:	00270280 	call	27028 <__pow5mult>
   23fc8:	1029883a 	mov	r20,r2
   23fcc:	d9c00417 	ldw	r7,16(sp)
   23fd0:	00800044 	movi	r2,1
   23fd4:	11c0f00e 	bge	r2,r7,24398 <_dtoa_r+0xe4c>
   23fd8:	0023883a 	mov	r17,zero
   23fdc:	d8800b17 	ldw	r2,44(sp)
   23fe0:	1001741e 	bne	r2,zero,245b4 <_dtoa_r+0x1068>
   23fe4:	00800044 	movi	r2,1
   23fe8:	d8c00717 	ldw	r3,28(sp)
   23fec:	10c5883a 	add	r2,r2,r3
   23ff0:	108007cc 	andi	r2,r2,31
   23ff4:	10008026 	beq	r2,zero,241f8 <_dtoa_r+0xcac>
   23ff8:	01000804 	movi	r4,32
   23ffc:	2089c83a 	sub	r4,r4,r2
   24000:	00c00104 	movi	r3,4
   24004:	1902d00e 	bge	r3,r4,24b48 <_dtoa_r+0x15fc>
   24008:	d9000817 	ldw	r4,32(sp)
   2400c:	d9c00717 	ldw	r7,28(sp)
   24010:	00c00704 	movi	r3,28
   24014:	1885c83a 	sub	r2,r3,r2
   24018:	2089883a 	add	r4,r4,r2
   2401c:	388f883a 	add	r7,r7,r2
   24020:	d9000815 	stw	r4,32(sp)
   24024:	90a5883a 	add	r18,r18,r2
   24028:	d9c00715 	stw	r7,28(sp)
   2402c:	d9c00817 	ldw	r7,32(sp)
   24030:	01c0050e 	bge	zero,r7,24048 <_dtoa_r+0xafc>
   24034:	e00b883a 	mov	r5,fp
   24038:	8009883a 	mov	r4,r16
   2403c:	380d883a 	mov	r6,r7
   24040:	00271540 	call	27154 <__lshift>
   24044:	1039883a 	mov	fp,r2
   24048:	d8800717 	ldw	r2,28(sp)
   2404c:	0080050e 	bge	zero,r2,24064 <_dtoa_r+0xb18>
   24050:	a00b883a 	mov	r5,r20
   24054:	8009883a 	mov	r4,r16
   24058:	100d883a 	mov	r6,r2
   2405c:	00271540 	call	27154 <__lshift>
   24060:	1029883a 	mov	r20,r2
   24064:	d8c00d17 	ldw	r3,52(sp)
   24068:	1801401e 	bne	r3,zero,2456c <_dtoa_r+0x1020>
   2406c:	d8800917 	ldw	r2,36(sp)
   24070:	00815a0e 	bge	zero,r2,245dc <_dtoa_r+0x1090>
   24074:	d8c00c17 	ldw	r3,48(sp)
   24078:	18006f1e 	bne	r3,zero,24238 <_dtoa_r+0xcec>
   2407c:	b823883a 	mov	r17,r23
   24080:	dc800917 	ldw	r18,36(sp)
   24084:	00000206 	br	24090 <_dtoa_r+0xb44>
   24088:	0026a340 	call	26a34 <__multadd>
   2408c:	1039883a 	mov	fp,r2
   24090:	e009883a 	mov	r4,fp
   24094:	a00b883a 	mov	r5,r20
   24098:	00233100 	call	23310 <quorem>
   2409c:	10800c04 	addi	r2,r2,48
   240a0:	88800005 	stb	r2,0(r17)
   240a4:	8c400044 	addi	r17,r17,1
   240a8:	8dc7c83a 	sub	r3,r17,r23
   240ac:	8009883a 	mov	r4,r16
   240b0:	e00b883a 	mov	r5,fp
   240b4:	01800284 	movi	r6,10
   240b8:	000f883a 	mov	r7,zero
   240bc:	1cbff216 	blt	r3,r18,24088 <_dtoa_r+0xb3c>
   240c0:	dd800917 	ldw	r22,36(sp)
   240c4:	1007883a 	mov	r3,r2
   240c8:	05823a0e 	bge	zero,r22,249b4 <_dtoa_r+0x1468>
   240cc:	bdad883a 	add	r22,r23,r22
   240d0:	0023883a 	mov	r17,zero
   240d4:	e00b883a 	mov	r5,fp
   240d8:	01800044 	movi	r6,1
   240dc:	8009883a 	mov	r4,r16
   240e0:	d8c01515 	stw	r3,84(sp)
   240e4:	00271540 	call	27154 <__lshift>
   240e8:	1009883a 	mov	r4,r2
   240ec:	a00b883a 	mov	r5,r20
   240f0:	1039883a 	mov	fp,r2
   240f4:	00272b00 	call	272b0 <__mcmp>
   240f8:	d8c01517 	ldw	r3,84(sp)
   240fc:	0080d60e 	bge	zero,r2,24458 <_dtoa_r+0xf0c>
   24100:	b13fffc3 	ldbu	r4,-1(r22)
   24104:	b0ffff84 	addi	r3,r22,-2
   24108:	01800e44 	movi	r6,57
   2410c:	00000306 	br	2411c <_dtoa_r+0xbd0>
   24110:	19000003 	ldbu	r4,0(r3)
   24114:	102d883a 	mov	r22,r2
   24118:	18ffffc4 	addi	r3,r3,-1
   2411c:	21403fcc 	andi	r5,r4,255
   24120:	2940201c 	xori	r5,r5,128
   24124:	297fe004 	addi	r5,r5,-128
   24128:	b0bfffc4 	addi	r2,r22,-1
   2412c:	2981a71e 	bne	r5,r6,247cc <_dtoa_r+0x1280>
   24130:	b8bff71e 	bne	r23,r2,24110 <_dtoa_r+0xbc4>
   24134:	d8800617 	ldw	r2,24(sp)
   24138:	10800044 	addi	r2,r2,1
   2413c:	d8800615 	stw	r2,24(sp)
   24140:	00800c44 	movi	r2,49
   24144:	b8800005 	stb	r2,0(r23)
   24148:	8009883a 	mov	r4,r16
   2414c:	a00b883a 	mov	r5,r20
   24150:	0026a0c0 	call	26a0c <_Bfree>
   24154:	a83e9e26 	beq	r21,zero,23bd0 <_dtoa_r+0x684>
   24158:	88000426 	beq	r17,zero,2416c <_dtoa_r+0xc20>
   2415c:	8d400326 	beq	r17,r21,2416c <_dtoa_r+0xc20>
   24160:	8009883a 	mov	r4,r16
   24164:	880b883a 	mov	r5,r17
   24168:	0026a0c0 	call	26a0c <_Bfree>
   2416c:	8009883a 	mov	r4,r16
   24170:	a80b883a 	mov	r5,r21
   24174:	0026a0c0 	call	26a0c <_Bfree>
   24178:	003e9506 	br	23bd0 <_dtoa_r+0x684>
   2417c:	00c00044 	movi	r3,1
   24180:	d8c00d15 	stw	r3,52(sp)
   24184:	003d9f06 	br	23804 <_dtoa_r+0x2b8>
   24188:	d9000817 	ldw	r4,32(sp)
   2418c:	d8800617 	ldw	r2,24(sp)
   24190:	d8000b15 	stw	zero,44(sp)
   24194:	2089c83a 	sub	r4,r4,r2
   24198:	0087c83a 	sub	r3,zero,r2
   2419c:	d9000815 	stw	r4,32(sp)
   241a0:	d8c00a15 	stw	r3,40(sp)
   241a4:	003da306 	br	23834 <_dtoa_r+0x2e8>
   241a8:	0529c83a 	sub	r20,zero,r20
   241ac:	dd000815 	stw	r20,32(sp)
   241b0:	d8000715 	stw	zero,28(sp)
   241b4:	003d9806 	br	23818 <_dtoa_r+0x2cc>
   241b8:	d9000617 	ldw	r4,24(sp)
   241bc:	0029de00 	call	29de0 <__floatsidf>
   241c0:	1009883a 	mov	r4,r2
   241c4:	180b883a 	mov	r5,r3
   241c8:	980d883a 	mov	r6,r19
   241cc:	900f883a 	mov	r7,r18
   241d0:	0029c600 	call	29c60 <__nedf2>
   241d4:	103d7a26 	beq	r2,zero,237c0 <_dtoa_r+0x274>
   241d8:	d8800617 	ldw	r2,24(sp)
   241dc:	10bfffc4 	addi	r2,r2,-1
   241e0:	d8800615 	stw	r2,24(sp)
   241e4:	003d7606 	br	237c0 <_dtoa_r+0x274>
   241e8:	dcc00a17 	ldw	r19,40(sp)
   241ec:	dc800817 	ldw	r18,32(sp)
   241f0:	002b883a 	mov	r21,zero
   241f4:	003f4906 	br	23f1c <_dtoa_r+0x9d0>
   241f8:	00800704 	movi	r2,28
   241fc:	d8c00817 	ldw	r3,32(sp)
   24200:	d9000717 	ldw	r4,28(sp)
   24204:	90a5883a 	add	r18,r18,r2
   24208:	1887883a 	add	r3,r3,r2
   2420c:	2089883a 	add	r4,r4,r2
   24210:	d8c00815 	stw	r3,32(sp)
   24214:	d9000715 	stw	r4,28(sp)
   24218:	003f8406 	br	2402c <_dtoa_r+0xae0>
   2421c:	d9c00317 	ldw	r7,12(sp)
   24220:	013efb84 	movi	r4,-1042
   24224:	2509c83a 	sub	r4,r4,r20
   24228:	3908983a 	sll	r4,r7,r4
   2422c:	003d3006 	br	236f0 <_dtoa_r+0x1a4>
   24230:	d8000d15 	stw	zero,52(sp)
   24234:	003d7306 	br	23804 <_dtoa_r+0x2b8>
   24238:	0480050e 	bge	zero,r18,24250 <_dtoa_r+0xd04>
   2423c:	a80b883a 	mov	r5,r21
   24240:	8009883a 	mov	r4,r16
   24244:	900d883a 	mov	r6,r18
   24248:	00271540 	call	27154 <__lshift>
   2424c:	102b883a 	mov	r21,r2
   24250:	8801611e 	bne	r17,zero,247d8 <_dtoa_r+0x128c>
   24254:	a827883a 	mov	r19,r21
   24258:	d8c00317 	ldw	r3,12(sp)
   2425c:	d9000917 	ldw	r4,36(sp)
   24260:	b8bfffc4 	addi	r2,r23,-1
   24264:	18c0004c 	andi	r3,r3,1
   24268:	1105883a 	add	r2,r2,r4
   2426c:	b825883a 	mov	r18,r23
   24270:	d8800515 	stw	r2,20(sp)
   24274:	a823883a 	mov	r17,r21
   24278:	d8c00315 	stw	r3,12(sp)
   2427c:	ddc00715 	stw	r23,28(sp)
   24280:	e009883a 	mov	r4,fp
   24284:	a00b883a 	mov	r5,r20
   24288:	00233100 	call	23310 <quorem>
   2428c:	e009883a 	mov	r4,fp
   24290:	880b883a 	mov	r5,r17
   24294:	102d883a 	mov	r22,r2
   24298:	00272b00 	call	272b0 <__mcmp>
   2429c:	980d883a 	mov	r6,r19
   242a0:	8009883a 	mov	r4,r16
   242a4:	a00b883a 	mov	r5,r20
   242a8:	102b883a 	mov	r21,r2
   242ac:	00273080 	call	27308 <__mdiff>
   242b0:	100d883a 	mov	r6,r2
   242b4:	10800317 	ldw	r2,12(r2)
   242b8:	b5c00c04 	addi	r23,r22,48
   242bc:	10008c26 	beq	r2,zero,244f0 <_dtoa_r+0xfa4>
   242c0:	8009883a 	mov	r4,r16
   242c4:	300b883a 	mov	r5,r6
   242c8:	0026a0c0 	call	26a0c <_Bfree>
   242cc:	00800044 	movi	r2,1
   242d0:	a8007116 	blt	r21,zero,24498 <_dtoa_r+0xf4c>
   242d4:	a800041e 	bne	r21,zero,242e8 <_dtoa_r+0xd9c>
   242d8:	d9c00417 	ldw	r7,16(sp)
   242dc:	3800021e 	bne	r7,zero,242e8 <_dtoa_r+0xd9c>
   242e0:	d8c00317 	ldw	r3,12(sp)
   242e4:	18006c26 	beq	r3,zero,24498 <_dtoa_r+0xf4c>
   242e8:	00814c16 	blt	zero,r2,2481c <_dtoa_r+0x12d0>
   242ec:	d8c00517 	ldw	r3,20(sp)
   242f0:	95400044 	addi	r21,r18,1
   242f4:	95c00005 	stb	r23,0(r18)
   242f8:	a82d883a 	mov	r22,r21
   242fc:	90c14d26 	beq	r18,r3,24834 <_dtoa_r+0x12e8>
   24300:	e00b883a 	mov	r5,fp
   24304:	8009883a 	mov	r4,r16
   24308:	01800284 	movi	r6,10
   2430c:	000f883a 	mov	r7,zero
   24310:	0026a340 	call	26a34 <__multadd>
   24314:	1039883a 	mov	fp,r2
   24318:	8cc08b26 	beq	r17,r19,24548 <_dtoa_r+0xffc>
   2431c:	880b883a 	mov	r5,r17
   24320:	01800284 	movi	r6,10
   24324:	000f883a 	mov	r7,zero
   24328:	8009883a 	mov	r4,r16
   2432c:	0026a340 	call	26a34 <__multadd>
   24330:	980b883a 	mov	r5,r19
   24334:	8009883a 	mov	r4,r16
   24338:	01800284 	movi	r6,10
   2433c:	000f883a 	mov	r7,zero
   24340:	1023883a 	mov	r17,r2
   24344:	0026a340 	call	26a34 <__multadd>
   24348:	1027883a 	mov	r19,r2
   2434c:	a825883a 	mov	r18,r21
   24350:	003fcb06 	br	24280 <_dtoa_r+0xd34>
   24354:	d9c00417 	ldw	r7,16(sp)
   24358:	00800104 	movi	r2,4
   2435c:	3880e426 	beq	r7,r2,246f0 <_dtoa_r+0x11a4>
   24360:	00800144 	movi	r2,5
   24364:	38be3c1e 	bne	r7,r2,23c58 <_dtoa_r+0x70c>
   24368:	00c00044 	movi	r3,1
   2436c:	d8c00c15 	stw	r3,48(sp)
   24370:	d9c02117 	ldw	r7,132(sp)
   24374:	d8800617 	ldw	r2,24(sp)
   24378:	388f883a 	add	r7,r7,r2
   2437c:	3c800044 	addi	r18,r7,1
   24380:	d9c00e15 	stw	r7,56(sp)
   24384:	dc800915 	stw	r18,36(sp)
   24388:	04bd3e16 	blt	zero,r18,23884 <_dtoa_r+0x338>
   2438c:	80001115 	stw	zero,68(r16)
   24390:	000b883a 	mov	r5,zero
   24394:	003d4606 	br	238b0 <_dtoa_r+0x364>
   24398:	d8c00317 	ldw	r3,12(sp)
   2439c:	183f0e1e 	bne	r3,zero,23fd8 <_dtoa_r+0xa8c>
   243a0:	00c00434 	movhi	r3,16
   243a4:	18ffffc4 	addi	r3,r3,-1
   243a8:	88c6703a 	and	r3,r17,r3
   243ac:	183f0a1e 	bne	r3,zero,23fd8 <_dtoa_r+0xa8c>
   243b0:	8c5ffc2c 	andhi	r17,r17,32752
   243b4:	883f0826 	beq	r17,zero,23fd8 <_dtoa_r+0xa8c>
   243b8:	d9000817 	ldw	r4,32(sp)
   243bc:	d9c00717 	ldw	r7,28(sp)
   243c0:	1023883a 	mov	r17,r2
   243c4:	2089883a 	add	r4,r4,r2
   243c8:	388f883a 	add	r7,r7,r2
   243cc:	d9000815 	stw	r4,32(sp)
   243d0:	d9c00715 	stw	r7,28(sp)
   243d4:	003f0106 	br	23fdc <_dtoa_r+0xa90>
   243d8:	9005883a 	mov	r2,r18
   243dc:	003ed306 	br	23f2c <_dtoa_r+0x9e0>
   243e0:	d8800917 	ldw	r2,36(sp)
   243e4:	00be3516 	blt	zero,r2,23cbc <_dtoa_r+0x770>
   243e8:	1000b61e 	bne	r2,zero,246c4 <_dtoa_r+0x1178>
   243ec:	9009883a 	mov	r4,r18
   243f0:	980b883a 	mov	r5,r19
   243f4:	000d883a 	mov	r6,zero
   243f8:	01d00534 	movhi	r7,16404
   243fc:	002976c0 	call	2976c <__muldf3>
   24400:	d9800317 	ldw	r6,12(sp)
   24404:	1009883a 	mov	r4,r2
   24408:	180b883a 	mov	r5,r3
   2440c:	880f883a 	mov	r7,r17
   24410:	0029d200 	call	29d20 <__gedf2>
   24414:	0029883a 	mov	r20,zero
   24418:	002b883a 	mov	r21,zero
   2441c:	10007e16 	blt	r2,zero,24618 <_dtoa_r+0x10cc>
   24420:	d8802117 	ldw	r2,132(sp)
   24424:	b82d883a 	mov	r22,r23
   24428:	0084303a 	nor	r2,zero,r2
   2442c:	d8800615 	stw	r2,24(sp)
   24430:	8009883a 	mov	r4,r16
   24434:	a00b883a 	mov	r5,r20
   24438:	0026a0c0 	call	26a0c <_Bfree>
   2443c:	a83f4b1e 	bne	r21,zero,2416c <_dtoa_r+0xc20>
   24440:	003de306 	br	23bd0 <_dtoa_r+0x684>
   24444:	e00b883a 	mov	r5,fp
   24448:	8009883a 	mov	r4,r16
   2444c:	00270280 	call	27028 <__pow5mult>
   24450:	1039883a 	mov	fp,r2
   24454:	003ed206 	br	23fa0 <_dtoa_r+0xa54>
   24458:	1000021e 	bne	r2,zero,24464 <_dtoa_r+0xf18>
   2445c:	18c0004c 	andi	r3,r3,1
   24460:	183f271e 	bne	r3,zero,24100 <_dtoa_r+0xbb4>
   24464:	01000c04 	movi	r4,48
   24468:	00000106 	br	24470 <_dtoa_r+0xf24>
   2446c:	102d883a 	mov	r22,r2
   24470:	b0bfffc4 	addi	r2,r22,-1
   24474:	10c00007 	ldb	r3,0(r2)
   24478:	193ffc26 	beq	r3,r4,2446c <_dtoa_r+0xf20>
   2447c:	003f3206 	br	24148 <_dtoa_r+0xbfc>
   24480:	d8c00f17 	ldw	r3,60(sp)
   24484:	18015026 	beq	r3,zero,249c8 <_dtoa_r+0x147c>
   24488:	10810cc4 	addi	r2,r2,1075
   2448c:	dcc00a17 	ldw	r19,40(sp)
   24490:	dc800817 	ldw	r18,32(sp)
   24494:	003e9706 	br	23ef4 <_dtoa_r+0x9a8>
   24498:	b807883a 	mov	r3,r23
   2449c:	182b883a 	mov	r21,r3
   244a0:	ddc00717 	ldw	r23,28(sp)
   244a4:	00800e0e 	bge	zero,r2,244e0 <_dtoa_r+0xf94>
   244a8:	e00b883a 	mov	r5,fp
   244ac:	01800044 	movi	r6,1
   244b0:	8009883a 	mov	r4,r16
   244b4:	d8c01515 	stw	r3,84(sp)
   244b8:	00271540 	call	27154 <__lshift>
   244bc:	1009883a 	mov	r4,r2
   244c0:	a00b883a 	mov	r5,r20
   244c4:	1039883a 	mov	fp,r2
   244c8:	00272b00 	call	272b0 <__mcmp>
   244cc:	d8c01517 	ldw	r3,84(sp)
   244d0:	0081880e 	bge	zero,r2,24af4 <_dtoa_r+0x15a8>
   244d4:	00800e44 	movi	r2,57
   244d8:	b0c00c44 	addi	r3,r22,49
   244dc:	a8816326 	beq	r21,r2,24a6c <_dtoa_r+0x1520>
   244e0:	90c00005 	stb	r3,0(r18)
   244e4:	95800044 	addi	r22,r18,1
   244e8:	982b883a 	mov	r21,r19
   244ec:	003f1606 	br	24148 <_dtoa_r+0xbfc>
   244f0:	300b883a 	mov	r5,r6
   244f4:	e009883a 	mov	r4,fp
   244f8:	d9801515 	stw	r6,84(sp)
   244fc:	00272b00 	call	272b0 <__mcmp>
   24500:	d9801517 	ldw	r6,84(sp)
   24504:	8009883a 	mov	r4,r16
   24508:	d8801515 	stw	r2,84(sp)
   2450c:	300b883a 	mov	r5,r6
   24510:	0026a0c0 	call	26a0c <_Bfree>
   24514:	d8801517 	ldw	r2,84(sp)
   24518:	103f6d1e 	bne	r2,zero,242d0 <_dtoa_r+0xd84>
   2451c:	d9c00417 	ldw	r7,16(sp)
   24520:	383f6b1e 	bne	r7,zero,242d0 <_dtoa_r+0xd84>
   24524:	d8c00317 	ldw	r3,12(sp)
   24528:	183f691e 	bne	r3,zero,242d0 <_dtoa_r+0xd84>
   2452c:	b807883a 	mov	r3,r23
   24530:	00800e44 	movi	r2,57
   24534:	ddc00717 	ldw	r23,28(sp)
   24538:	18814c26 	beq	r3,r2,24a6c <_dtoa_r+0x1520>
   2453c:	057fe80e 	bge	zero,r21,244e0 <_dtoa_r+0xf94>
   24540:	b0c00c44 	addi	r3,r22,49
   24544:	003fe606 	br	244e0 <_dtoa_r+0xf94>
   24548:	880b883a 	mov	r5,r17
   2454c:	8009883a 	mov	r4,r16
   24550:	01800284 	movi	r6,10
   24554:	000f883a 	mov	r7,zero
   24558:	0026a340 	call	26a34 <__multadd>
   2455c:	1023883a 	mov	r17,r2
   24560:	1027883a 	mov	r19,r2
   24564:	a825883a 	mov	r18,r21
   24568:	003f4506 	br	24280 <_dtoa_r+0xd34>
   2456c:	e009883a 	mov	r4,fp
   24570:	a00b883a 	mov	r5,r20
   24574:	00272b00 	call	272b0 <__mcmp>
   24578:	103ebc0e 	bge	r2,zero,2406c <_dtoa_r+0xb20>
   2457c:	e00b883a 	mov	r5,fp
   24580:	8009883a 	mov	r4,r16
   24584:	01800284 	movi	r6,10
   24588:	000f883a 	mov	r7,zero
   2458c:	0026a340 	call	26a34 <__multadd>
   24590:	1039883a 	mov	fp,r2
   24594:	d8800617 	ldw	r2,24(sp)
   24598:	d8c00c17 	ldw	r3,48(sp)
   2459c:	10bfffc4 	addi	r2,r2,-1
   245a0:	d8800615 	stw	r2,24(sp)
   245a4:	1801571e 	bne	r3,zero,24b04 <_dtoa_r+0x15b8>
   245a8:	d9c00e17 	ldw	r7,56(sp)
   245ac:	d9c00915 	stw	r7,36(sp)
   245b0:	003eae06 	br	2406c <_dtoa_r+0xb20>
   245b4:	a0800417 	ldw	r2,16(r20)
   245b8:	10800104 	addi	r2,r2,4
   245bc:	1085883a 	add	r2,r2,r2
   245c0:	1085883a 	add	r2,r2,r2
   245c4:	a085883a 	add	r2,r20,r2
   245c8:	11000017 	ldw	r4,0(r2)
   245cc:	0026c7c0 	call	26c7c <__hi0bits>
   245d0:	00c00804 	movi	r3,32
   245d4:	1885c83a 	sub	r2,r3,r2
   245d8:	003e8306 	br	23fe8 <_dtoa_r+0xa9c>
   245dc:	d9c00417 	ldw	r7,16(sp)
   245e0:	00800084 	movi	r2,2
   245e4:	11fea30e 	bge	r2,r7,24074 <_dtoa_r+0xb28>
   245e8:	d8800917 	ldw	r2,36(sp)
   245ec:	103f8c1e 	bne	r2,zero,24420 <_dtoa_r+0xed4>
   245f0:	a00b883a 	mov	r5,r20
   245f4:	8009883a 	mov	r4,r16
   245f8:	01800144 	movi	r6,5
   245fc:	000f883a 	mov	r7,zero
   24600:	0026a340 	call	26a34 <__multadd>
   24604:	e009883a 	mov	r4,fp
   24608:	100b883a 	mov	r5,r2
   2460c:	1029883a 	mov	r20,r2
   24610:	00272b00 	call	272b0 <__mcmp>
   24614:	00bf820e 	bge	zero,r2,24420 <_dtoa_r+0xed4>
   24618:	00800c44 	movi	r2,49
   2461c:	b8800005 	stb	r2,0(r23)
   24620:	d8800617 	ldw	r2,24(sp)
   24624:	bd800044 	addi	r22,r23,1
   24628:	10800044 	addi	r2,r2,1
   2462c:	d8800615 	stw	r2,24(sp)
   24630:	003f7f06 	br	24430 <_dtoa_r+0xee4>
   24634:	dc000417 	ldw	r16,16(sp)
   24638:	003d6506 	br	23bd0 <_dtoa_r+0x684>
   2463c:	9009883a 	mov	r4,r18
   24640:	0029de00 	call	29de0 <__floatsidf>
   24644:	1009883a 	mov	r4,r2
   24648:	180b883a 	mov	r5,r3
   2464c:	980d883a 	mov	r6,r19
   24650:	a00f883a 	mov	r7,r20
   24654:	002976c0 	call	2976c <__muldf3>
   24658:	1009883a 	mov	r4,r2
   2465c:	180b883a 	mov	r5,r3
   24660:	000d883a 	mov	r6,zero
   24664:	01d00734 	movhi	r7,16412
   24668:	00296b80 	call	296b8 <__adddf3>
   2466c:	057f3034 	movhi	r21,64704
   24670:	1025883a 	mov	r18,r2
   24674:	1d6b883a 	add	r21,r3,r21
   24678:	9809883a 	mov	r4,r19
   2467c:	a00b883a 	mov	r5,r20
   24680:	000d883a 	mov	r6,zero
   24684:	01d00534 	movhi	r7,16404
   24688:	002970c0 	call	2970c <__subdf3>
   2468c:	1009883a 	mov	r4,r2
   24690:	180b883a 	mov	r5,r3
   24694:	900d883a 	mov	r6,r18
   24698:	a80f883a 	mov	r7,r21
   2469c:	1027883a 	mov	r19,r2
   246a0:	1829883a 	mov	r20,r3
   246a4:	0029cbc0 	call	29cbc <__gtdf2>
   246a8:	00806616 	blt	zero,r2,24844 <_dtoa_r+0x12f8>
   246ac:	a9e0003c 	xorhi	r7,r21,32768
   246b0:	9809883a 	mov	r4,r19
   246b4:	a00b883a 	mov	r5,r20
   246b8:	900d883a 	mov	r6,r18
   246bc:	0029d840 	call	29d84 <__ltdf2>
   246c0:	103d710e 	bge	r2,zero,23c88 <_dtoa_r+0x73c>
   246c4:	0029883a 	mov	r20,zero
   246c8:	002b883a 	mov	r21,zero
   246cc:	003f5406 	br	24420 <_dtoa_r+0xed4>
   246d0:	d9800a17 	ldw	r6,40(sp)
   246d4:	e00b883a 	mov	r5,fp
   246d8:	8009883a 	mov	r4,r16
   246dc:	00270280 	call	27028 <__pow5mult>
   246e0:	1039883a 	mov	fp,r2
   246e4:	003e2e06 	br	23fa0 <_dtoa_r+0xa54>
   246e8:	d8000c15 	stw	zero,48(sp)
   246ec:	003f2006 	br	24370 <_dtoa_r+0xe24>
   246f0:	00800044 	movi	r2,1
   246f4:	d8800c15 	stw	r2,48(sp)
   246f8:	003c5d06 	br	23870 <_dtoa_r+0x324>
   246fc:	d8c00a17 	ldw	r3,40(sp)
   24700:	d9000b17 	ldw	r4,44(sp)
   24704:	dcc00a15 	stw	r19,40(sp)
   24708:	98c5c83a 	sub	r2,r19,r3
   2470c:	2089883a 	add	r4,r4,r2
   24710:	d9000b15 	stw	r4,44(sp)
   24714:	0027883a 	mov	r19,zero
   24718:	003df206 	br	23ee4 <_dtoa_r+0x998>
   2471c:	d9000317 	ldw	r4,12(sp)
   24720:	8829883a 	mov	r20,r17
   24724:	04800084 	movi	r18,2
   24728:	d9001015 	stw	r4,64(sp)
   2472c:	003c8106 	br	23934 <_dtoa_r+0x3e8>
   24730:	04800044 	movi	r18,1
   24734:	dc800e15 	stw	r18,56(sp)
   24738:	dc800915 	stw	r18,36(sp)
   2473c:	dc802115 	stw	r18,132(sp)
   24740:	003f1206 	br	2438c <_dtoa_r+0xe40>
   24744:	d8800617 	ldw	r2,24(sp)
   24748:	00abc83a 	sub	r21,zero,r2
   2474c:	a800a426 	beq	r21,zero,249e0 <_dtoa_r+0x1494>
   24750:	a88003cc 	andi	r2,r21,15
   24754:	100490fa 	slli	r2,r2,3
   24758:	00c000f4 	movhi	r3,3
   2475c:	18f4b504 	addi	r3,r3,-11564
   24760:	d9000317 	ldw	r4,12(sp)
   24764:	1885883a 	add	r2,r3,r2
   24768:	11800017 	ldw	r6,0(r2)
   2476c:	11c00117 	ldw	r7,4(r2)
   24770:	a82bd13a 	srai	r21,r21,4
   24774:	880b883a 	mov	r5,r17
   24778:	002976c0 	call	2976c <__muldf3>
   2477c:	1027883a 	mov	r19,r2
   24780:	1829883a 	mov	r20,r3
   24784:	a800e826 	beq	r21,zero,24b28 <_dtoa_r+0x15dc>
   24788:	058000f4 	movhi	r22,3
   2478c:	b5b4ab04 	addi	r22,r22,-11604
   24790:	04800084 	movi	r18,2
   24794:	a980004c 	andi	r6,r21,1
   24798:	1009883a 	mov	r4,r2
   2479c:	a82bd07a 	srai	r21,r21,1
   247a0:	180b883a 	mov	r5,r3
   247a4:	30000426 	beq	r6,zero,247b8 <_dtoa_r+0x126c>
   247a8:	b1800017 	ldw	r6,0(r22)
   247ac:	b1c00117 	ldw	r7,4(r22)
   247b0:	94800044 	addi	r18,r18,1
   247b4:	002976c0 	call	2976c <__muldf3>
   247b8:	b5800204 	addi	r22,r22,8
   247bc:	a83ff51e 	bne	r21,zero,24794 <_dtoa_r+0x1248>
   247c0:	1027883a 	mov	r19,r2
   247c4:	1829883a 	mov	r20,r3
   247c8:	003c7306 	br	23998 <_dtoa_r+0x44c>
   247cc:	21000044 	addi	r4,r4,1
   247d0:	11000005 	stb	r4,0(r2)
   247d4:	003e5c06 	br	24148 <_dtoa_r+0xbfc>
   247d8:	a9400117 	ldw	r5,4(r21)
   247dc:	8009883a 	mov	r4,r16
   247e0:	00269640 	call	26964 <_Balloc>
   247e4:	a9800417 	ldw	r6,16(r21)
   247e8:	11000304 	addi	r4,r2,12
   247ec:	a9400304 	addi	r5,r21,12
   247f0:	31800084 	addi	r6,r6,2
   247f4:	318d883a 	add	r6,r6,r6
   247f8:	318d883a 	add	r6,r6,r6
   247fc:	1023883a 	mov	r17,r2
   24800:	00265bc0 	call	265bc <memcpy>
   24804:	8009883a 	mov	r4,r16
   24808:	880b883a 	mov	r5,r17
   2480c:	01800044 	movi	r6,1
   24810:	00271540 	call	27154 <__lshift>
   24814:	1027883a 	mov	r19,r2
   24818:	003e8f06 	br	24258 <_dtoa_r+0xd0c>
   2481c:	b807883a 	mov	r3,r23
   24820:	00800e44 	movi	r2,57
   24824:	ddc00717 	ldw	r23,28(sp)
   24828:	18809026 	beq	r3,r2,24a6c <_dtoa_r+0x1520>
   2482c:	18c00044 	addi	r3,r3,1
   24830:	003f2b06 	br	244e0 <_dtoa_r+0xf94>
   24834:	b807883a 	mov	r3,r23
   24838:	982b883a 	mov	r21,r19
   2483c:	ddc00717 	ldw	r23,28(sp)
   24840:	003e2406 	br	240d4 <_dtoa_r+0xb88>
   24844:	0029883a 	mov	r20,zero
   24848:	002b883a 	mov	r21,zero
   2484c:	003f7206 	br	24618 <_dtoa_r+0x10cc>
   24850:	593fffc4 	addi	r4,r11,-1
   24854:	200490fa 	slli	r2,r4,3
   24858:	00c000f4 	movhi	r3,3
   2485c:	18f4b504 	addi	r3,r3,-11564
   24860:	d9001015 	stw	r4,64(sp)
   24864:	1885883a 	add	r2,r3,r2
   24868:	11000017 	ldw	r4,0(r2)
   2486c:	11400117 	ldw	r5,4(r2)
   24870:	900d883a 	mov	r6,r18
   24874:	a80f883a 	mov	r7,r21
   24878:	dac01615 	stw	r11,88(sp)
   2487c:	002976c0 	call	2976c <__muldf3>
   24880:	a00b883a 	mov	r5,r20
   24884:	9809883a 	mov	r4,r19
   24888:	d8c01215 	stw	r3,72(sp)
   2488c:	d8801115 	stw	r2,68(sp)
   24890:	0029eb40 	call	29eb4 <__fixdfsi>
   24894:	1009883a 	mov	r4,r2
   24898:	1025883a 	mov	r18,r2
   2489c:	0029de00 	call	29de0 <__floatsidf>
   248a0:	9809883a 	mov	r4,r19
   248a4:	a00b883a 	mov	r5,r20
   248a8:	100d883a 	mov	r6,r2
   248ac:	180f883a 	mov	r7,r3
   248b0:	94800c04 	addi	r18,r18,48
   248b4:	002970c0 	call	2970c <__subdf3>
   248b8:	bc800005 	stb	r18,0(r23)
   248bc:	dac01617 	ldw	r11,88(sp)
   248c0:	102b883a 	mov	r21,r2
   248c4:	00800044 	movi	r2,1
   248c8:	bd800044 	addi	r22,r23,1
   248cc:	1815883a 	mov	r10,r3
   248d0:	58802226 	beq	r11,r2,2495c <_dtoa_r+0x1410>
   248d4:	bad7883a 	add	r11,r23,r11
   248d8:	dc001415 	stw	r16,80(sp)
   248dc:	a805883a 	mov	r2,r21
   248e0:	b027883a 	mov	r19,r22
   248e4:	5821883a 	mov	r16,r11
   248e8:	882b883a 	mov	r21,r17
   248ec:	000d883a 	mov	r6,zero
   248f0:	01d00934 	movhi	r7,16420
   248f4:	1009883a 	mov	r4,r2
   248f8:	180b883a 	mov	r5,r3
   248fc:	002976c0 	call	2976c <__muldf3>
   24900:	180b883a 	mov	r5,r3
   24904:	1009883a 	mov	r4,r2
   24908:	1829883a 	mov	r20,r3
   2490c:	1023883a 	mov	r17,r2
   24910:	0029eb40 	call	29eb4 <__fixdfsi>
   24914:	1009883a 	mov	r4,r2
   24918:	1025883a 	mov	r18,r2
   2491c:	0029de00 	call	29de0 <__floatsidf>
   24920:	8809883a 	mov	r4,r17
   24924:	a00b883a 	mov	r5,r20
   24928:	100d883a 	mov	r6,r2
   2492c:	180f883a 	mov	r7,r3
   24930:	94800c04 	addi	r18,r18,48
   24934:	002970c0 	call	2970c <__subdf3>
   24938:	9cc00044 	addi	r19,r19,1
   2493c:	9cbfffc5 	stb	r18,-1(r19)
   24940:	9c3fea1e 	bne	r19,r16,248ec <_dtoa_r+0x13a0>
   24944:	1815883a 	mov	r10,r3
   24948:	d8c01017 	ldw	r3,64(sp)
   2494c:	dc001417 	ldw	r16,80(sp)
   24950:	a823883a 	mov	r17,r21
   24954:	b0ed883a 	add	r22,r22,r3
   24958:	102b883a 	mov	r21,r2
   2495c:	d9001117 	ldw	r4,68(sp)
   24960:	d9401217 	ldw	r5,72(sp)
   24964:	000d883a 	mov	r6,zero
   24968:	01cff834 	movhi	r7,16352
   2496c:	da801515 	stw	r10,84(sp)
   24970:	00296b80 	call	296b8 <__adddf3>
   24974:	da801517 	ldw	r10,84(sp)
   24978:	1009883a 	mov	r4,r2
   2497c:	180b883a 	mov	r5,r3
   24980:	500f883a 	mov	r7,r10
   24984:	a80d883a 	mov	r6,r21
   24988:	0029d840 	call	29d84 <__ltdf2>
   2498c:	da801517 	ldw	r10,84(sp)
   24990:	10003b0e 	bge	r2,zero,24a80 <_dtoa_r+0x1534>
   24994:	d9c01317 	ldw	r7,76(sp)
   24998:	b53fffc3 	ldbu	r20,-1(r22)
   2499c:	d9c00615 	stw	r7,24(sp)
   249a0:	003d3106 	br	23e68 <_dtoa_r+0x91c>
   249a4:	d8800817 	ldw	r2,32(sp)
   249a8:	11e5c83a 	sub	r18,r2,r7
   249ac:	0005883a 	mov	r2,zero
   249b0:	003d5006 	br	23ef4 <_dtoa_r+0x9a8>
   249b4:	05800044 	movi	r22,1
   249b8:	003dc406 	br	240cc <_dtoa_r+0xb80>
   249bc:	a5000044 	addi	r20,r20,1
   249c0:	15000005 	stb	r20,0(r2)
   249c4:	003c8206 	br	23bd0 <_dtoa_r+0x684>
   249c8:	d8800217 	ldw	r2,8(sp)
   249cc:	00c00d84 	movi	r3,54
   249d0:	dcc00a17 	ldw	r19,40(sp)
   249d4:	1885c83a 	sub	r2,r3,r2
   249d8:	dc800817 	ldw	r18,32(sp)
   249dc:	003d4506 	br	23ef4 <_dtoa_r+0x9a8>
   249e0:	dcc00317 	ldw	r19,12(sp)
   249e4:	8829883a 	mov	r20,r17
   249e8:	04800084 	movi	r18,2
   249ec:	003bea06 	br	23998 <_dtoa_r+0x44c>
   249f0:	d9000917 	ldw	r4,36(sp)
   249f4:	203f1126 	beq	r4,zero,2463c <_dtoa_r+0x10f0>
   249f8:	d9c00e17 	ldw	r7,56(sp)
   249fc:	01fca20e 	bge	zero,r7,23c88 <_dtoa_r+0x73c>
   24a00:	a00b883a 	mov	r5,r20
   24a04:	9809883a 	mov	r4,r19
   24a08:	000d883a 	mov	r6,zero
   24a0c:	01d00934 	movhi	r7,16420
   24a10:	002976c0 	call	2976c <__muldf3>
   24a14:	91000044 	addi	r4,r18,1
   24a18:	1027883a 	mov	r19,r2
   24a1c:	1829883a 	mov	r20,r3
   24a20:	0029de00 	call	29de0 <__floatsidf>
   24a24:	9809883a 	mov	r4,r19
   24a28:	a00b883a 	mov	r5,r20
   24a2c:	100d883a 	mov	r6,r2
   24a30:	180f883a 	mov	r7,r3
   24a34:	002976c0 	call	2976c <__muldf3>
   24a38:	1009883a 	mov	r4,r2
   24a3c:	180b883a 	mov	r5,r3
   24a40:	000d883a 	mov	r6,zero
   24a44:	01d00734 	movhi	r7,16412
   24a48:	00296b80 	call	296b8 <__adddf3>
   24a4c:	1025883a 	mov	r18,r2
   24a50:	d8800617 	ldw	r2,24(sp)
   24a54:	057f3034 	movhi	r21,64704
   24a58:	1d6b883a 	add	r21,r3,r21
   24a5c:	10bfffc4 	addi	r2,r2,-1
   24a60:	d8801315 	stw	r2,76(sp)
   24a64:	dac00e17 	ldw	r11,56(sp)
   24a68:	003be706 	br	23a08 <_dtoa_r+0x4bc>
   24a6c:	01000e44 	movi	r4,57
   24a70:	91000005 	stb	r4,0(r18)
   24a74:	95800044 	addi	r22,r18,1
   24a78:	982b883a 	mov	r21,r19
   24a7c:	003da106 	br	24104 <_dtoa_r+0xbb8>
   24a80:	d9801117 	ldw	r6,68(sp)
   24a84:	d9c01217 	ldw	r7,72(sp)
   24a88:	0009883a 	mov	r4,zero
   24a8c:	014ff834 	movhi	r5,16352
   24a90:	da801515 	stw	r10,84(sp)
   24a94:	002970c0 	call	2970c <__subdf3>
   24a98:	da801517 	ldw	r10,84(sp)
   24a9c:	1009883a 	mov	r4,r2
   24aa0:	180b883a 	mov	r5,r3
   24aa4:	a80d883a 	mov	r6,r21
   24aa8:	500f883a 	mov	r7,r10
   24aac:	0029cbc0 	call	29cbc <__gtdf2>
   24ab0:	00bc750e 	bge	zero,r2,23c88 <_dtoa_r+0x73c>
   24ab4:	01000c04 	movi	r4,48
   24ab8:	00000106 	br	24ac0 <_dtoa_r+0x1574>
   24abc:	102d883a 	mov	r22,r2
   24ac0:	b0bfffc4 	addi	r2,r22,-1
   24ac4:	10c00007 	ldb	r3,0(r2)
   24ac8:	193ffc26 	beq	r3,r4,24abc <_dtoa_r+0x1570>
   24acc:	d8801317 	ldw	r2,76(sp)
   24ad0:	d8800615 	stw	r2,24(sp)
   24ad4:	003c3e06 	br	23bd0 <_dtoa_r+0x684>
   24ad8:	d9001317 	ldw	r4,76(sp)
   24adc:	df001117 	ldw	fp,68(sp)
   24ae0:	d9000615 	stw	r4,24(sp)
   24ae4:	003ce006 	br	23e68 <_dtoa_r+0x91c>
   24ae8:	df001117 	ldw	fp,68(sp)
   24aec:	dc401217 	ldw	r17,72(sp)
   24af0:	003c6506 	br	23c88 <_dtoa_r+0x73c>
   24af4:	103e7a1e 	bne	r2,zero,244e0 <_dtoa_r+0xf94>
   24af8:	1880004c 	andi	r2,r3,1
   24afc:	103e7826 	beq	r2,zero,244e0 <_dtoa_r+0xf94>
   24b00:	003e7406 	br	244d4 <_dtoa_r+0xf88>
   24b04:	8009883a 	mov	r4,r16
   24b08:	a80b883a 	mov	r5,r21
   24b0c:	01800284 	movi	r6,10
   24b10:	000f883a 	mov	r7,zero
   24b14:	0026a340 	call	26a34 <__multadd>
   24b18:	d9000e17 	ldw	r4,56(sp)
   24b1c:	102b883a 	mov	r21,r2
   24b20:	d9000915 	stw	r4,36(sp)
   24b24:	003d5106 	br	2406c <_dtoa_r+0xb20>
   24b28:	04800084 	movi	r18,2
   24b2c:	003b9a06 	br	23998 <_dtoa_r+0x44c>
   24b30:	d8c01317 	ldw	r3,76(sp)
   24b34:	d8c00615 	stw	r3,24(sp)
   24b38:	003ccb06 	br	23e68 <_dtoa_r+0x91c>
   24b3c:	d8c01317 	ldw	r3,76(sp)
   24b40:	d8c00615 	stw	r3,24(sp)
   24b44:	003c2206 	br	23bd0 <_dtoa_r+0x684>
   24b48:	20fd3826 	beq	r4,r3,2402c <_dtoa_r+0xae0>
   24b4c:	00c00f04 	movi	r3,60
   24b50:	1885c83a 	sub	r2,r3,r2
   24b54:	003da906 	br	241fc <_dtoa_r+0xcb0>
   24b58:	000b883a 	mov	r5,zero
   24b5c:	003b5406 	br	238b0 <_dtoa_r+0x364>
   24b60:	04c00044 	movi	r19,1
   24b64:	003b3b06 	br	23854 <_dtoa_r+0x308>

00024b68 <_fflush_r>:
   24b68:	defffb04 	addi	sp,sp,-20
   24b6c:	dcc00315 	stw	r19,12(sp)
   24b70:	dc400115 	stw	r17,4(sp)
   24b74:	dfc00415 	stw	ra,16(sp)
   24b78:	dc800215 	stw	r18,8(sp)
   24b7c:	dc000015 	stw	r16,0(sp)
   24b80:	2027883a 	mov	r19,r4
   24b84:	2823883a 	mov	r17,r5
   24b88:	20000226 	beq	r4,zero,24b94 <_fflush_r+0x2c>
   24b8c:	20800e17 	ldw	r2,56(r4)
   24b90:	10005726 	beq	r2,zero,24cf0 <_fflush_r+0x188>
   24b94:	8880030b 	ldhu	r2,12(r17)
   24b98:	10c0020c 	andi	r3,r2,8
   24b9c:	18ffffcc 	andi	r3,r3,65535
   24ba0:	18e0001c 	xori	r3,r3,32768
   24ba4:	18e00004 	addi	r3,r3,-32768
   24ba8:	1800311e 	bne	r3,zero,24c70 <_fflush_r+0x108>
   24bac:	89000117 	ldw	r4,4(r17)
   24bb0:	10c20014 	ori	r3,r2,2048
   24bb4:	88c0030d 	sth	r3,12(r17)
   24bb8:	180b883a 	mov	r5,r3
   24bbc:	0100520e 	bge	zero,r4,24d08 <_fflush_r+0x1a0>
   24bc0:	88c00a17 	ldw	r3,40(r17)
   24bc4:	18002226 	beq	r3,zero,24c50 <_fflush_r+0xe8>
   24bc8:	1084000c 	andi	r2,r2,4096
   24bcc:	10bfffcc 	andi	r2,r2,65535
   24bd0:	10a0001c 	xori	r2,r2,32768
   24bd4:	10a00004 	addi	r2,r2,-32768
   24bd8:	10004e26 	beq	r2,zero,24d14 <_fflush_r+0x1ac>
   24bdc:	8c001417 	ldw	r16,80(r17)
   24be0:	2940010c 	andi	r5,r5,4
   24be4:	297fffcc 	andi	r5,r5,65535
   24be8:	2960001c 	xori	r5,r5,32768
   24bec:	29600004 	addi	r5,r5,-32768
   24bf0:	28000626 	beq	r5,zero,24c0c <_fflush_r+0xa4>
   24bf4:	89000117 	ldw	r4,4(r17)
   24bf8:	88800c17 	ldw	r2,48(r17)
   24bfc:	8121c83a 	sub	r16,r16,r4
   24c00:	10000226 	beq	r2,zero,24c0c <_fflush_r+0xa4>
   24c04:	88800f17 	ldw	r2,60(r17)
   24c08:	80a1c83a 	sub	r16,r16,r2
   24c0c:	89400717 	ldw	r5,28(r17)
   24c10:	9809883a 	mov	r4,r19
   24c14:	800d883a 	mov	r6,r16
   24c18:	000f883a 	mov	r7,zero
   24c1c:	183ee83a 	callr	r3
   24c20:	8080281e 	bne	r16,r2,24cc4 <_fflush_r+0x15c>
   24c24:	8880030b 	ldhu	r2,12(r17)
   24c28:	88c00417 	ldw	r3,16(r17)
   24c2c:	88000115 	stw	zero,4(r17)
   24c30:	113dffcc 	andi	r4,r2,63487
   24c34:	1084000c 	andi	r2,r2,4096
   24c38:	10bfffcc 	andi	r2,r2,65535
   24c3c:	10a0001c 	xori	r2,r2,32768
   24c40:	8900030d 	sth	r4,12(r17)
   24c44:	88c00015 	stw	r3,0(r17)
   24c48:	10a00004 	addi	r2,r2,-32768
   24c4c:	10002c1e 	bne	r2,zero,24d00 <_fflush_r+0x198>
   24c50:	0005883a 	mov	r2,zero
   24c54:	dfc00417 	ldw	ra,16(sp)
   24c58:	dcc00317 	ldw	r19,12(sp)
   24c5c:	dc800217 	ldw	r18,8(sp)
   24c60:	dc400117 	ldw	r17,4(sp)
   24c64:	dc000017 	ldw	r16,0(sp)
   24c68:	dec00504 	addi	sp,sp,20
   24c6c:	f800283a 	ret
   24c70:	8c800417 	ldw	r18,16(r17)
   24c74:	903ff626 	beq	r18,zero,24c50 <_fflush_r+0xe8>
   24c78:	8c000017 	ldw	r16,0(r17)
   24c7c:	108000cc 	andi	r2,r2,3
   24c80:	8c800015 	stw	r18,0(r17)
   24c84:	84a1c83a 	sub	r16,r16,r18
   24c88:	10001b1e 	bne	r2,zero,24cf8 <_fflush_r+0x190>
   24c8c:	88800517 	ldw	r2,20(r17)
   24c90:	88800215 	stw	r2,8(r17)
   24c94:	04000316 	blt	zero,r16,24ca4 <_fflush_r+0x13c>
   24c98:	003fed06 	br	24c50 <_fflush_r+0xe8>
   24c9c:	90a5883a 	add	r18,r18,r2
   24ca0:	043feb0e 	bge	zero,r16,24c50 <_fflush_r+0xe8>
   24ca4:	88800917 	ldw	r2,36(r17)
   24ca8:	89400717 	ldw	r5,28(r17)
   24cac:	800f883a 	mov	r7,r16
   24cb0:	900d883a 	mov	r6,r18
   24cb4:	9809883a 	mov	r4,r19
   24cb8:	103ee83a 	callr	r2
   24cbc:	80a1c83a 	sub	r16,r16,r2
   24cc0:	00bff616 	blt	zero,r2,24c9c <_fflush_r+0x134>
   24cc4:	88c0030b 	ldhu	r3,12(r17)
   24cc8:	00bfffc4 	movi	r2,-1
   24ccc:	18c01014 	ori	r3,r3,64
   24cd0:	88c0030d 	sth	r3,12(r17)
   24cd4:	dfc00417 	ldw	ra,16(sp)
   24cd8:	dcc00317 	ldw	r19,12(sp)
   24cdc:	dc800217 	ldw	r18,8(sp)
   24ce0:	dc400117 	ldw	r17,4(sp)
   24ce4:	dc000017 	ldw	r16,0(sp)
   24ce8:	dec00504 	addi	sp,sp,20
   24cec:	f800283a 	ret
   24cf0:	0024e240 	call	24e24 <__sinit>
   24cf4:	003fa706 	br	24b94 <_fflush_r+0x2c>
   24cf8:	0005883a 	mov	r2,zero
   24cfc:	003fe406 	br	24c90 <_fflush_r+0x128>
   24d00:	8c001415 	stw	r16,80(r17)
   24d04:	003fd206 	br	24c50 <_fflush_r+0xe8>
   24d08:	88c00f17 	ldw	r3,60(r17)
   24d0c:	00ffac16 	blt	zero,r3,24bc0 <_fflush_r+0x58>
   24d10:	003fcf06 	br	24c50 <_fflush_r+0xe8>
   24d14:	89400717 	ldw	r5,28(r17)
   24d18:	9809883a 	mov	r4,r19
   24d1c:	000d883a 	mov	r6,zero
   24d20:	01c00044 	movi	r7,1
   24d24:	183ee83a 	callr	r3
   24d28:	1021883a 	mov	r16,r2
   24d2c:	00bfffc4 	movi	r2,-1
   24d30:	80800326 	beq	r16,r2,24d40 <_fflush_r+0x1d8>
   24d34:	8940030b 	ldhu	r5,12(r17)
   24d38:	88c00a17 	ldw	r3,40(r17)
   24d3c:	003fa806 	br	24be0 <_fflush_r+0x78>
   24d40:	98c00017 	ldw	r3,0(r19)
   24d44:	00800744 	movi	r2,29
   24d48:	18bfde1e 	bne	r3,r2,24cc4 <_fflush_r+0x15c>
   24d4c:	003fc006 	br	24c50 <_fflush_r+0xe8>

00024d50 <fflush>:
   24d50:	200b883a 	mov	r5,r4
   24d54:	20000426 	beq	r4,zero,24d68 <fflush+0x18>
   24d58:	008000f4 	movhi	r2,3
   24d5c:	10bb8404 	addi	r2,r2,-4592
   24d60:	11000017 	ldw	r4,0(r2)
   24d64:	0024b681 	jmpi	24b68 <_fflush_r>
   24d68:	008000f4 	movhi	r2,3
   24d6c:	10bb8304 	addi	r2,r2,-4596
   24d70:	11000017 	ldw	r4,0(r2)
   24d74:	014000b4 	movhi	r5,2
   24d78:	2952da04 	addi	r5,r5,19304
   24d7c:	0025a041 	jmpi	25a04 <_fwalk_reent>

00024d80 <__fp_lock>:
   24d80:	0005883a 	mov	r2,zero
   24d84:	f800283a 	ret

00024d88 <__fp_unlock>:
   24d88:	0005883a 	mov	r2,zero
   24d8c:	f800283a 	ret

00024d90 <_cleanup_r>:
   24d90:	014000f4 	movhi	r5,3
   24d94:	29614d04 	addi	r5,r5,-31436
   24d98:	002595c1 	jmpi	2595c <_fwalk>

00024d9c <__sfmoreglue>:
   24d9c:	defffc04 	addi	sp,sp,-16
   24da0:	dc800215 	stw	r18,8(sp)
   24da4:	2825883a 	mov	r18,r5
   24da8:	dc000015 	stw	r16,0(sp)
   24dac:	01401704 	movi	r5,92
   24db0:	2021883a 	mov	r16,r4
   24db4:	9009883a 	mov	r4,r18
   24db8:	dfc00315 	stw	ra,12(sp)
   24dbc:	dc400115 	stw	r17,4(sp)
   24dc0:	0020eb40 	call	20eb4 <__mulsi3>
   24dc4:	8009883a 	mov	r4,r16
   24dc8:	11400304 	addi	r5,r2,12
   24dcc:	1023883a 	mov	r17,r2
   24dd0:	0025d400 	call	25d40 <_malloc_r>
   24dd4:	1021883a 	mov	r16,r2
   24dd8:	10000726 	beq	r2,zero,24df8 <__sfmoreglue+0x5c>
   24ddc:	11000304 	addi	r4,r2,12
   24de0:	10000015 	stw	zero,0(r2)
   24de4:	14800115 	stw	r18,4(r2)
   24de8:	11000215 	stw	r4,8(r2)
   24dec:	000b883a 	mov	r5,zero
   24df0:	880d883a 	mov	r6,r17
   24df4:	00268880 	call	26888 <memset>
   24df8:	8005883a 	mov	r2,r16
   24dfc:	dfc00317 	ldw	ra,12(sp)
   24e00:	dc800217 	ldw	r18,8(sp)
   24e04:	dc400117 	ldw	r17,4(sp)
   24e08:	dc000017 	ldw	r16,0(sp)
   24e0c:	dec00404 	addi	sp,sp,16
   24e10:	f800283a 	ret

00024e14 <_cleanup>:
   24e14:	008000f4 	movhi	r2,3
   24e18:	10bb8304 	addi	r2,r2,-4596
   24e1c:	11000017 	ldw	r4,0(r2)
   24e20:	0024d901 	jmpi	24d90 <_cleanup_r>

00024e24 <__sinit>:
   24e24:	20800e17 	ldw	r2,56(r4)
   24e28:	1000401e 	bne	r2,zero,24f2c <__sinit+0x108>
   24e2c:	21400117 	ldw	r5,4(r4)
   24e30:	018000b4 	movhi	r6,2
   24e34:	31936404 	addi	r6,r6,19856
   24e38:	20c00217 	ldw	r3,8(r4)
   24e3c:	21800f15 	stw	r6,60(r4)
   24e40:	2080bb04 	addi	r2,r4,748
   24e44:	02400044 	movi	r9,1
   24e48:	018000c4 	movi	r6,3
   24e4c:	2180b915 	stw	r6,740(r4)
   24e50:	2080ba15 	stw	r2,744(r4)
   24e54:	22400e15 	stw	r9,56(r4)
   24e58:	20800317 	ldw	r2,12(r4)
   24e5c:	2000b815 	stw	zero,736(r4)
   24e60:	020000f4 	movhi	r8,3
   24e64:	42201e04 	addi	r8,r8,-32648
   24e68:	01c000f4 	movhi	r7,3
   24e6c:	39e03304 	addi	r7,r7,-32564
   24e70:	018000f4 	movhi	r6,3
   24e74:	31a05504 	addi	r6,r6,-32428
   24e78:	010000f4 	movhi	r4,3
   24e7c:	21206c04 	addi	r4,r4,-32336
   24e80:	02800104 	movi	r10,4
   24e84:	28000015 	stw	zero,0(r5)
   24e88:	28000115 	stw	zero,4(r5)
   24e8c:	28000215 	stw	zero,8(r5)
   24e90:	2a80030d 	sth	r10,12(r5)
   24e94:	2800038d 	sth	zero,14(r5)
   24e98:	28000415 	stw	zero,16(r5)
   24e9c:	28000515 	stw	zero,20(r5)
   24ea0:	28000615 	stw	zero,24(r5)
   24ea4:	29400715 	stw	r5,28(r5)
   24ea8:	2a000815 	stw	r8,32(r5)
   24eac:	29c00915 	stw	r7,36(r5)
   24eb0:	29800a15 	stw	r6,40(r5)
   24eb4:	29000b15 	stw	r4,44(r5)
   24eb8:	01400284 	movi	r5,10
   24ebc:	18000015 	stw	zero,0(r3)
   24ec0:	18000115 	stw	zero,4(r3)
   24ec4:	18000215 	stw	zero,8(r3)
   24ec8:	1940030d 	sth	r5,12(r3)
   24ecc:	1a40038d 	sth	r9,14(r3)
   24ed0:	18000415 	stw	zero,16(r3)
   24ed4:	18000515 	stw	zero,20(r3)
   24ed8:	18000615 	stw	zero,24(r3)
   24edc:	18c00715 	stw	r3,28(r3)
   24ee0:	1a000815 	stw	r8,32(r3)
   24ee4:	19c00915 	stw	r7,36(r3)
   24ee8:	19800a15 	stw	r6,40(r3)
   24eec:	19000b15 	stw	r4,44(r3)
   24ef0:	00c00484 	movi	r3,18
   24ef4:	10c0030d 	sth	r3,12(r2)
   24ef8:	00c00084 	movi	r3,2
   24efc:	10000015 	stw	zero,0(r2)
   24f00:	10000115 	stw	zero,4(r2)
   24f04:	10000215 	stw	zero,8(r2)
   24f08:	10c0038d 	sth	r3,14(r2)
   24f0c:	10000415 	stw	zero,16(r2)
   24f10:	10000515 	stw	zero,20(r2)
   24f14:	10000615 	stw	zero,24(r2)
   24f18:	10800715 	stw	r2,28(r2)
   24f1c:	12000815 	stw	r8,32(r2)
   24f20:	11c00915 	stw	r7,36(r2)
   24f24:	11800a15 	stw	r6,40(r2)
   24f28:	11000b15 	stw	r4,44(r2)
   24f2c:	f800283a 	ret

00024f30 <__sfp>:
   24f30:	defffc04 	addi	sp,sp,-16
   24f34:	008000f4 	movhi	r2,3
   24f38:	10bb8304 	addi	r2,r2,-4596
   24f3c:	dc400115 	stw	r17,4(sp)
   24f40:	14400017 	ldw	r17,0(r2)
   24f44:	dc800215 	stw	r18,8(sp)
   24f48:	dfc00315 	stw	ra,12(sp)
   24f4c:	88800e17 	ldw	r2,56(r17)
   24f50:	dc000015 	stw	r16,0(sp)
   24f54:	2025883a 	mov	r18,r4
   24f58:	10002826 	beq	r2,zero,24ffc <__sfp+0xcc>
   24f5c:	8c40b804 	addi	r17,r17,736
   24f60:	043fffc4 	movi	r16,-1
   24f64:	89400117 	ldw	r5,4(r17)
   24f68:	88800217 	ldw	r2,8(r17)
   24f6c:	297fffc4 	addi	r5,r5,-1
   24f70:	28000a16 	blt	r5,zero,24f9c <__sfp+0x6c>
   24f74:	10c0030f 	ldh	r3,12(r2)
   24f78:	18000c26 	beq	r3,zero,24fac <__sfp+0x7c>
   24f7c:	10c01a04 	addi	r3,r2,104
   24f80:	00000206 	br	24f8c <__sfp+0x5c>
   24f84:	19bfe90f 	ldh	r6,-92(r3)
   24f88:	30000826 	beq	r6,zero,24fac <__sfp+0x7c>
   24f8c:	297fffc4 	addi	r5,r5,-1
   24f90:	18bffd04 	addi	r2,r3,-12
   24f94:	18c01704 	addi	r3,r3,92
   24f98:	2c3ffa1e 	bne	r5,r16,24f84 <__sfp+0x54>
   24f9c:	88800017 	ldw	r2,0(r17)
   24fa0:	10001926 	beq	r2,zero,25008 <__sfp+0xd8>
   24fa4:	1023883a 	mov	r17,r2
   24fa8:	003fee06 	br	24f64 <__sfp+0x34>
   24fac:	00ffffc4 	movi	r3,-1
   24fb0:	10c0038d 	sth	r3,14(r2)
   24fb4:	00c00044 	movi	r3,1
   24fb8:	10c0030d 	sth	r3,12(r2)
   24fbc:	10000015 	stw	zero,0(r2)
   24fc0:	10000215 	stw	zero,8(r2)
   24fc4:	10000115 	stw	zero,4(r2)
   24fc8:	10000415 	stw	zero,16(r2)
   24fcc:	10000515 	stw	zero,20(r2)
   24fd0:	10000615 	stw	zero,24(r2)
   24fd4:	10000c15 	stw	zero,48(r2)
   24fd8:	10000d15 	stw	zero,52(r2)
   24fdc:	10001115 	stw	zero,68(r2)
   24fe0:	10001215 	stw	zero,72(r2)
   24fe4:	dfc00317 	ldw	ra,12(sp)
   24fe8:	dc800217 	ldw	r18,8(sp)
   24fec:	dc400117 	ldw	r17,4(sp)
   24ff0:	dc000017 	ldw	r16,0(sp)
   24ff4:	dec00404 	addi	sp,sp,16
   24ff8:	f800283a 	ret
   24ffc:	8809883a 	mov	r4,r17
   25000:	0024e240 	call	24e24 <__sinit>
   25004:	003fd506 	br	24f5c <__sfp+0x2c>
   25008:	9009883a 	mov	r4,r18
   2500c:	01400104 	movi	r5,4
   25010:	0024d9c0 	call	24d9c <__sfmoreglue>
   25014:	88800015 	stw	r2,0(r17)
   25018:	103fe21e 	bne	r2,zero,24fa4 <__sfp+0x74>
   2501c:	00800304 	movi	r2,12
   25020:	90800015 	stw	r2,0(r18)
   25024:	0005883a 	mov	r2,zero
   25028:	003fee06 	br	24fe4 <__sfp+0xb4>

0002502c <__sfp_lock_acquire>:
   2502c:	f800283a 	ret

00025030 <__sfp_lock_release>:
   25030:	f800283a 	ret

00025034 <__sinit_lock_acquire>:
   25034:	f800283a 	ret

00025038 <__sinit_lock_release>:
   25038:	f800283a 	ret

0002503c <__fp_lock_all>:
   2503c:	008000f4 	movhi	r2,3
   25040:	10bb8404 	addi	r2,r2,-4592
   25044:	11000017 	ldw	r4,0(r2)
   25048:	014000b4 	movhi	r5,2
   2504c:	29536004 	addi	r5,r5,19840
   25050:	002595c1 	jmpi	2595c <_fwalk>

00025054 <__fp_unlock_all>:
   25054:	008000f4 	movhi	r2,3
   25058:	10bb8404 	addi	r2,r2,-4592
   2505c:	11000017 	ldw	r4,0(r2)
   25060:	014000b4 	movhi	r5,2
   25064:	29536204 	addi	r5,r5,19848
   25068:	002595c1 	jmpi	2595c <_fwalk>

0002506c <_malloc_trim_r>:
   2506c:	defffb04 	addi	sp,sp,-20
   25070:	dcc00315 	stw	r19,12(sp)
   25074:	dc800215 	stw	r18,8(sp)
   25078:	dc400115 	stw	r17,4(sp)
   2507c:	dc000015 	stw	r16,0(sp)
   25080:	2827883a 	mov	r19,r5
   25084:	dfc00415 	stw	ra,16(sp)
   25088:	044000f4 	movhi	r17,3
   2508c:	8c75ff04 	addi	r17,r17,-10244
   25090:	2021883a 	mov	r16,r4
   25094:	002a9a80 	call	2a9a8 <__malloc_lock>
   25098:	88800217 	ldw	r2,8(r17)
   2509c:	14800117 	ldw	r18,4(r2)
   250a0:	00bfff04 	movi	r2,-4
   250a4:	90a4703a 	and	r18,r18,r2
   250a8:	9083fbc4 	addi	r2,r18,4079
   250ac:	14e7c83a 	sub	r19,r2,r19
   250b0:	9826d33a 	srli	r19,r19,12
   250b4:	0083ffc4 	movi	r2,4095
   250b8:	9cffffc4 	addi	r19,r19,-1
   250bc:	9826933a 	slli	r19,r19,12
   250c0:	14c0060e 	bge	r2,r19,250dc <_malloc_trim_r+0x70>
   250c4:	8009883a 	mov	r4,r16
   250c8:	000b883a 	mov	r5,zero
   250cc:	00280140 	call	28014 <_sbrk_r>
   250d0:	88c00217 	ldw	r3,8(r17)
   250d4:	1c87883a 	add	r3,r3,r18
   250d8:	10c00a26 	beq	r2,r3,25104 <_malloc_trim_r+0x98>
   250dc:	8009883a 	mov	r4,r16
   250e0:	002a9c80 	call	2a9c8 <__malloc_unlock>
   250e4:	0005883a 	mov	r2,zero
   250e8:	dfc00417 	ldw	ra,16(sp)
   250ec:	dcc00317 	ldw	r19,12(sp)
   250f0:	dc800217 	ldw	r18,8(sp)
   250f4:	dc400117 	ldw	r17,4(sp)
   250f8:	dc000017 	ldw	r16,0(sp)
   250fc:	dec00504 	addi	sp,sp,20
   25100:	f800283a 	ret
   25104:	8009883a 	mov	r4,r16
   25108:	04cbc83a 	sub	r5,zero,r19
   2510c:	00280140 	call	28014 <_sbrk_r>
   25110:	00ffffc4 	movi	r3,-1
   25114:	10c01326 	beq	r2,r3,25164 <_malloc_trim_r+0xf8>
   25118:	008000f4 	movhi	r2,3
   2511c:	10823704 	addi	r2,r2,2268
   25120:	11000017 	ldw	r4,0(r2)
   25124:	88c00217 	ldw	r3,8(r17)
   25128:	94e5c83a 	sub	r18,r18,r19
   2512c:	94800054 	ori	r18,r18,1
   25130:	24e7c83a 	sub	r19,r4,r19
   25134:	1c800115 	stw	r18,4(r3)
   25138:	8009883a 	mov	r4,r16
   2513c:	14c00015 	stw	r19,0(r2)
   25140:	002a9c80 	call	2a9c8 <__malloc_unlock>
   25144:	00800044 	movi	r2,1
   25148:	dfc00417 	ldw	ra,16(sp)
   2514c:	dcc00317 	ldw	r19,12(sp)
   25150:	dc800217 	ldw	r18,8(sp)
   25154:	dc400117 	ldw	r17,4(sp)
   25158:	dc000017 	ldw	r16,0(sp)
   2515c:	dec00504 	addi	sp,sp,20
   25160:	f800283a 	ret
   25164:	8009883a 	mov	r4,r16
   25168:	000b883a 	mov	r5,zero
   2516c:	00280140 	call	28014 <_sbrk_r>
   25170:	88c00217 	ldw	r3,8(r17)
   25174:	014003c4 	movi	r5,15
   25178:	10c9c83a 	sub	r4,r2,r3
   2517c:	293fd70e 	bge	r5,r4,250dc <_malloc_trim_r+0x70>
   25180:	014000f4 	movhi	r5,3
   25184:	297b8604 	addi	r5,r5,-4584
   25188:	29400017 	ldw	r5,0(r5)
   2518c:	21000054 	ori	r4,r4,1
   25190:	19000115 	stw	r4,4(r3)
   25194:	1145c83a 	sub	r2,r2,r5
   25198:	014000f4 	movhi	r5,3
   2519c:	29423704 	addi	r5,r5,2268
   251a0:	28800015 	stw	r2,0(r5)
   251a4:	003fcd06 	br	250dc <_malloc_trim_r+0x70>

000251a8 <_free_r>:
   251a8:	defffd04 	addi	sp,sp,-12
   251ac:	dc400115 	stw	r17,4(sp)
   251b0:	dc000015 	stw	r16,0(sp)
   251b4:	dfc00215 	stw	ra,8(sp)
   251b8:	2821883a 	mov	r16,r5
   251bc:	2023883a 	mov	r17,r4
   251c0:	28004b26 	beq	r5,zero,252f0 <_free_r+0x148>
   251c4:	002a9a80 	call	2a9a8 <__malloc_lock>
   251c8:	823fff17 	ldw	r8,-4(r16)
   251cc:	00bfff84 	movi	r2,-2
   251d0:	81bffe04 	addi	r6,r16,-8
   251d4:	4084703a 	and	r2,r8,r2
   251d8:	3087883a 	add	r3,r6,r2
   251dc:	014000f4 	movhi	r5,3
   251e0:	2975ff04 	addi	r5,r5,-10244
   251e4:	1a400117 	ldw	r9,4(r3)
   251e8:	29000217 	ldw	r4,8(r5)
   251ec:	01ffff04 	movi	r7,-4
   251f0:	49ce703a 	and	r7,r9,r7
   251f4:	20c06526 	beq	r4,r3,2538c <_free_r+0x1e4>
   251f8:	19c00115 	stw	r7,4(r3)
   251fc:	4200004c 	andi	r8,r8,1
   25200:	40003026 	beq	r8,zero,252c4 <_free_r+0x11c>
   25204:	0009883a 	mov	r4,zero
   25208:	19d1883a 	add	r8,r3,r7
   2520c:	42000117 	ldw	r8,4(r8)
   25210:	4200004c 	andi	r8,r8,1
   25214:	4000061e 	bne	r8,zero,25230 <_free_r+0x88>
   25218:	11c5883a 	add	r2,r2,r7
   2521c:	19c00217 	ldw	r7,8(r3)
   25220:	20004e26 	beq	r4,zero,2535c <_free_r+0x1b4>
   25224:	18c00317 	ldw	r3,12(r3)
   25228:	38c00315 	stw	r3,12(r7)
   2522c:	19c00215 	stw	r7,8(r3)
   25230:	11c00054 	ori	r7,r2,1
   25234:	3087883a 	add	r3,r6,r2
   25238:	31c00115 	stw	r7,4(r6)
   2523c:	18800015 	stw	r2,0(r3)
   25240:	20001a1e 	bne	r4,zero,252ac <_free_r+0x104>
   25244:	00c07fc4 	movi	r3,511
   25248:	18802e2e 	bgeu	r3,r2,25304 <_free_r+0x15c>
   2524c:	1006d27a 	srli	r3,r2,9
   25250:	01000104 	movi	r4,4
   25254:	20c06636 	bltu	r4,r3,253f0 <_free_r+0x248>
   25258:	1008d1ba 	srli	r4,r2,6
   2525c:	21000e04 	addi	r4,r4,56
   25260:	210f883a 	add	r7,r4,r4
   25264:	39cf883a 	add	r7,r7,r7
   25268:	39cf883a 	add	r7,r7,r7
   2526c:	29cf883a 	add	r7,r5,r7
   25270:	38c00217 	ldw	r3,8(r7)
   25274:	014000f4 	movhi	r5,3
   25278:	2975ff04 	addi	r5,r5,-10244
   2527c:	19c06126 	beq	r3,r7,25404 <_free_r+0x25c>
   25280:	013fff04 	movi	r4,-4
   25284:	19400117 	ldw	r5,4(r3)
   25288:	290a703a 	and	r5,r5,r4
   2528c:	1140022e 	bgeu	r2,r5,25298 <_free_r+0xf0>
   25290:	18c00217 	ldw	r3,8(r3)
   25294:	38fffb1e 	bne	r7,r3,25284 <_free_r+0xdc>
   25298:	18800317 	ldw	r2,12(r3)
   2529c:	30800315 	stw	r2,12(r6)
   252a0:	30c00215 	stw	r3,8(r6)
   252a4:	11800215 	stw	r6,8(r2)
   252a8:	19800315 	stw	r6,12(r3)
   252ac:	8809883a 	mov	r4,r17
   252b0:	dfc00217 	ldw	ra,8(sp)
   252b4:	dc400117 	ldw	r17,4(sp)
   252b8:	dc000017 	ldw	r16,0(sp)
   252bc:	dec00304 	addi	sp,sp,12
   252c0:	002a9c81 	jmpi	2a9c8 <__malloc_unlock>
   252c4:	813ffe17 	ldw	r4,-8(r16)
   252c8:	2a400204 	addi	r9,r5,8
   252cc:	310dc83a 	sub	r6,r6,r4
   252d0:	32000217 	ldw	r8,8(r6)
   252d4:	1105883a 	add	r2,r2,r4
   252d8:	42404326 	beq	r8,r9,253e8 <_free_r+0x240>
   252dc:	32400317 	ldw	r9,12(r6)
   252e0:	0009883a 	mov	r4,zero
   252e4:	42400315 	stw	r9,12(r8)
   252e8:	4a000215 	stw	r8,8(r9)
   252ec:	003fc606 	br	25208 <_free_r+0x60>
   252f0:	dfc00217 	ldw	ra,8(sp)
   252f4:	dc400117 	ldw	r17,4(sp)
   252f8:	dc000017 	ldw	r16,0(sp)
   252fc:	dec00304 	addi	sp,sp,12
   25300:	f800283a 	ret
   25304:	1004d0fa 	srli	r2,r2,3
   25308:	02000044 	movi	r8,1
   2530c:	29c00117 	ldw	r7,4(r5)
   25310:	1087883a 	add	r3,r2,r2
   25314:	18c7883a 	add	r3,r3,r3
   25318:	1005d0ba 	srai	r2,r2,2
   2531c:	18c7883a 	add	r3,r3,r3
   25320:	28c7883a 	add	r3,r5,r3
   25324:	19000217 	ldw	r4,8(r3)
   25328:	4084983a 	sll	r2,r8,r2
   2532c:	30c00315 	stw	r3,12(r6)
   25330:	31000215 	stw	r4,8(r6)
   25334:	11c4b03a 	or	r2,r2,r7
   25338:	21800315 	stw	r6,12(r4)
   2533c:	8809883a 	mov	r4,r17
   25340:	28800115 	stw	r2,4(r5)
   25344:	19800215 	stw	r6,8(r3)
   25348:	dfc00217 	ldw	ra,8(sp)
   2534c:	dc400117 	ldw	r17,4(sp)
   25350:	dc000017 	ldw	r16,0(sp)
   25354:	dec00304 	addi	sp,sp,12
   25358:	002a9c81 	jmpi	2a9c8 <__malloc_unlock>
   2535c:	020000f4 	movhi	r8,3
   25360:	42360104 	addi	r8,r8,-10236
   25364:	3a3faf1e 	bne	r7,r8,25224 <_free_r+0x7c>
   25368:	29800515 	stw	r6,20(r5)
   2536c:	29800415 	stw	r6,16(r5)
   25370:	11000054 	ori	r4,r2,1
   25374:	3087883a 	add	r3,r6,r2
   25378:	31c00315 	stw	r7,12(r6)
   2537c:	31c00215 	stw	r7,8(r6)
   25380:	31000115 	stw	r4,4(r6)
   25384:	18800015 	stw	r2,0(r3)
   25388:	003fc806 	br	252ac <_free_r+0x104>
   2538c:	4200004c 	andi	r8,r8,1
   25390:	3885883a 	add	r2,r7,r2
   25394:	4000071e 	bne	r8,zero,253b4 <_free_r+0x20c>
   25398:	81fffe17 	ldw	r7,-8(r16)
   2539c:	31cdc83a 	sub	r6,r6,r7
   253a0:	30c00317 	ldw	r3,12(r6)
   253a4:	31000217 	ldw	r4,8(r6)
   253a8:	11c5883a 	add	r2,r2,r7
   253ac:	20c00315 	stw	r3,12(r4)
   253b0:	19000215 	stw	r4,8(r3)
   253b4:	00c000f4 	movhi	r3,3
   253b8:	18fb8704 	addi	r3,r3,-4580
   253bc:	18c00017 	ldw	r3,0(r3)
   253c0:	11000054 	ori	r4,r2,1
   253c4:	31000115 	stw	r4,4(r6)
   253c8:	29800215 	stw	r6,8(r5)
   253cc:	10ffb736 	bltu	r2,r3,252ac <_free_r+0x104>
   253d0:	008000f4 	movhi	r2,3
   253d4:	10822d04 	addi	r2,r2,2228
   253d8:	11400017 	ldw	r5,0(r2)
   253dc:	8809883a 	mov	r4,r17
   253e0:	002506c0 	call	2506c <_malloc_trim_r>
   253e4:	003fb106 	br	252ac <_free_r+0x104>
   253e8:	01000044 	movi	r4,1
   253ec:	003f8606 	br	25208 <_free_r+0x60>
   253f0:	01000504 	movi	r4,20
   253f4:	20c00b36 	bltu	r4,r3,25424 <_free_r+0x27c>
   253f8:	190016c4 	addi	r4,r3,91
   253fc:	210f883a 	add	r7,r4,r4
   25400:	003f9806 	br	25264 <_free_r+0xbc>
   25404:	2009d0ba 	srai	r4,r4,2
   25408:	00800044 	movi	r2,1
   2540c:	29c00117 	ldw	r7,4(r5)
   25410:	1108983a 	sll	r4,r2,r4
   25414:	1805883a 	mov	r2,r3
   25418:	21c8b03a 	or	r4,r4,r7
   2541c:	29000115 	stw	r4,4(r5)
   25420:	003f9e06 	br	2529c <_free_r+0xf4>
   25424:	01001504 	movi	r4,84
   25428:	20c00436 	bltu	r4,r3,2543c <_free_r+0x294>
   2542c:	1008d33a 	srli	r4,r2,12
   25430:	21001b84 	addi	r4,r4,110
   25434:	210f883a 	add	r7,r4,r4
   25438:	003f8a06 	br	25264 <_free_r+0xbc>
   2543c:	01005504 	movi	r4,340
   25440:	20c00436 	bltu	r4,r3,25454 <_free_r+0x2ac>
   25444:	1008d3fa 	srli	r4,r2,15
   25448:	21001dc4 	addi	r4,r4,119
   2544c:	210f883a 	add	r7,r4,r4
   25450:	003f8406 	br	25264 <_free_r+0xbc>
   25454:	01015504 	movi	r4,1364
   25458:	20c00436 	bltu	r4,r3,2546c <_free_r+0x2c4>
   2545c:	1008d4ba 	srli	r4,r2,18
   25460:	21001f04 	addi	r4,r4,124
   25464:	210f883a 	add	r7,r4,r4
   25468:	003f7e06 	br	25264 <_free_r+0xbc>
   2546c:	01c03f04 	movi	r7,252
   25470:	01001f84 	movi	r4,126
   25474:	003f7b06 	br	25264 <_free_r+0xbc>

00025478 <__sfvwrite_r>:
   25478:	30800217 	ldw	r2,8(r6)
   2547c:	defff504 	addi	sp,sp,-44
   25480:	dd400615 	stw	r21,24(sp)
   25484:	dd000515 	stw	r20,20(sp)
   25488:	dc000115 	stw	r16,4(sp)
   2548c:	dfc00a15 	stw	ra,40(sp)
   25490:	df000915 	stw	fp,36(sp)
   25494:	ddc00815 	stw	r23,32(sp)
   25498:	dd800715 	stw	r22,28(sp)
   2549c:	dcc00415 	stw	r19,16(sp)
   254a0:	dc800315 	stw	r18,12(sp)
   254a4:	dc400215 	stw	r17,8(sp)
   254a8:	3029883a 	mov	r20,r6
   254ac:	202b883a 	mov	r21,r4
   254b0:	2821883a 	mov	r16,r5
   254b4:	10002126 	beq	r2,zero,2553c <__sfvwrite_r+0xc4>
   254b8:	2880030b 	ldhu	r2,12(r5)
   254bc:	10c0020c 	andi	r3,r2,8
   254c0:	18ffffcc 	andi	r3,r3,65535
   254c4:	18e0001c 	xori	r3,r3,32768
   254c8:	18e00004 	addi	r3,r3,-32768
   254cc:	18002826 	beq	r3,zero,25570 <__sfvwrite_r+0xf8>
   254d0:	28c00417 	ldw	r3,16(r5)
   254d4:	18002626 	beq	r3,zero,25570 <__sfvwrite_r+0xf8>
   254d8:	10c0008c 	andi	r3,r2,2
   254dc:	18ffffcc 	andi	r3,r3,65535
   254e0:	18e0001c 	xori	r3,r3,32768
   254e4:	18e00004 	addi	r3,r3,-32768
   254e8:	a4400017 	ldw	r17,0(r20)
   254ec:	18002b26 	beq	r3,zero,2559c <__sfvwrite_r+0x124>
   254f0:	0027883a 	mov	r19,zero
   254f4:	0025883a 	mov	r18,zero
   254f8:	05810004 	movi	r22,1024
   254fc:	980d883a 	mov	r6,r19
   25500:	a809883a 	mov	r4,r21
   25504:	90004f26 	beq	r18,zero,25644 <__sfvwrite_r+0x1cc>
   25508:	900f883a 	mov	r7,r18
   2550c:	81400717 	ldw	r5,28(r16)
   25510:	b480012e 	bgeu	r22,r18,25518 <__sfvwrite_r+0xa0>
   25514:	01c10004 	movi	r7,1024
   25518:	80800917 	ldw	r2,36(r16)
   2551c:	103ee83a 	callr	r2
   25520:	0080540e 	bge	zero,r2,25674 <__sfvwrite_r+0x1fc>
   25524:	a0c00217 	ldw	r3,8(r20)
   25528:	98a7883a 	add	r19,r19,r2
   2552c:	90a5c83a 	sub	r18,r18,r2
   25530:	1885c83a 	sub	r2,r3,r2
   25534:	a0800215 	stw	r2,8(r20)
   25538:	103ff01e 	bne	r2,zero,254fc <__sfvwrite_r+0x84>
   2553c:	0005883a 	mov	r2,zero
   25540:	dfc00a17 	ldw	ra,40(sp)
   25544:	df000917 	ldw	fp,36(sp)
   25548:	ddc00817 	ldw	r23,32(sp)
   2554c:	dd800717 	ldw	r22,28(sp)
   25550:	dd400617 	ldw	r21,24(sp)
   25554:	dd000517 	ldw	r20,20(sp)
   25558:	dcc00417 	ldw	r19,16(sp)
   2555c:	dc800317 	ldw	r18,12(sp)
   25560:	dc400217 	ldw	r17,8(sp)
   25564:	dc000117 	ldw	r16,4(sp)
   25568:	dec00b04 	addi	sp,sp,44
   2556c:	f800283a 	ret
   25570:	a809883a 	mov	r4,r21
   25574:	800b883a 	mov	r5,r16
   25578:	0022ffc0 	call	22ffc <__swsetup_r>
   2557c:	1000f01e 	bne	r2,zero,25940 <__sfvwrite_r+0x4c8>
   25580:	8080030b 	ldhu	r2,12(r16)
   25584:	a4400017 	ldw	r17,0(r20)
   25588:	10c0008c 	andi	r3,r2,2
   2558c:	18ffffcc 	andi	r3,r3,65535
   25590:	18e0001c 	xori	r3,r3,32768
   25594:	18e00004 	addi	r3,r3,-32768
   25598:	183fd51e 	bne	r3,zero,254f0 <__sfvwrite_r+0x78>
   2559c:	10c0004c 	andi	r3,r2,1
   255a0:	002d883a 	mov	r22,zero
   255a4:	1800381e 	bne	r3,zero,25688 <__sfvwrite_r+0x210>
   255a8:	0025883a 	mov	r18,zero
   255ac:	90002126 	beq	r18,zero,25634 <__sfvwrite_r+0x1bc>
   255b0:	10c0800c 	andi	r3,r2,512
   255b4:	18ffffcc 	andi	r3,r3,65535
   255b8:	18e0001c 	xori	r3,r3,32768
   255bc:	18e00004 	addi	r3,r3,-32768
   255c0:	84c00217 	ldw	r19,8(r16)
   255c4:	18006b26 	beq	r3,zero,25774 <__sfvwrite_r+0x2fc>
   255c8:	980f883a 	mov	r7,r19
   255cc:	94c08636 	bltu	r18,r19,257e8 <__sfvwrite_r+0x370>
   255d0:	10c1200c 	andi	r3,r2,1152
   255d4:	18009f1e 	bne	r3,zero,25854 <__sfvwrite_r+0x3dc>
   255d8:	81000017 	ldw	r4,0(r16)
   255dc:	982f883a 	mov	r23,r19
   255e0:	9039883a 	mov	fp,r18
   255e4:	9027883a 	mov	r19,r18
   255e8:	380d883a 	mov	r6,r7
   255ec:	b00b883a 	mov	r5,r22
   255f0:	d9c00015 	stw	r7,0(sp)
   255f4:	00266fc0 	call	266fc <memmove>
   255f8:	d9c00017 	ldw	r7,0(sp)
   255fc:	81000217 	ldw	r4,8(r16)
   25600:	80800017 	ldw	r2,0(r16)
   25604:	25efc83a 	sub	r23,r4,r23
   25608:	11cf883a 	add	r7,r2,r7
   2560c:	85c00215 	stw	r23,8(r16)
   25610:	81c00015 	stw	r7,0(r16)
   25614:	a0800217 	ldw	r2,8(r20)
   25618:	b72d883a 	add	r22,r22,fp
   2561c:	9725c83a 	sub	r18,r18,fp
   25620:	14e7c83a 	sub	r19,r2,r19
   25624:	a4c00215 	stw	r19,8(r20)
   25628:	983fc426 	beq	r19,zero,2553c <__sfvwrite_r+0xc4>
   2562c:	8080030b 	ldhu	r2,12(r16)
   25630:	903fdf1e 	bne	r18,zero,255b0 <__sfvwrite_r+0x138>
   25634:	8d800017 	ldw	r22,0(r17)
   25638:	8c800117 	ldw	r18,4(r17)
   2563c:	8c400204 	addi	r17,r17,8
   25640:	003fda06 	br	255ac <__sfvwrite_r+0x134>
   25644:	8cc00017 	ldw	r19,0(r17)
   25648:	8c800117 	ldw	r18,4(r17)
   2564c:	8c400204 	addi	r17,r17,8
   25650:	003faa06 	br	254fc <__sfvwrite_r+0x84>
   25654:	00279b40 	call	279b4 <_realloc_r>
   25658:	102f883a 	mov	r23,r2
   2565c:	10009f1e 	bne	r2,zero,258dc <__sfvwrite_r+0x464>
   25660:	81400417 	ldw	r5,16(r16)
   25664:	a809883a 	mov	r4,r21
   25668:	00251a80 	call	251a8 <_free_r>
   2566c:	00800304 	movi	r2,12
   25670:	a8800015 	stw	r2,0(r21)
   25674:	80c0030b 	ldhu	r3,12(r16)
   25678:	00bfffc4 	movi	r2,-1
   2567c:	18c01014 	ori	r3,r3,64
   25680:	80c0030d 	sth	r3,12(r16)
   25684:	003fae06 	br	25540 <__sfvwrite_r+0xc8>
   25688:	0007883a 	mov	r3,zero
   2568c:	0039883a 	mov	fp,zero
   25690:	0025883a 	mov	r18,zero
   25694:	90001e26 	beq	r18,zero,25710 <__sfvwrite_r+0x298>
   25698:	18006526 	beq	r3,zero,25830 <__sfvwrite_r+0x3b8>
   2569c:	b02f883a 	mov	r23,r22
   256a0:	9580012e 	bgeu	r18,r22,256a8 <__sfvwrite_r+0x230>
   256a4:	902f883a 	mov	r23,r18
   256a8:	81000017 	ldw	r4,0(r16)
   256ac:	80800417 	ldw	r2,16(r16)
   256b0:	84c00217 	ldw	r19,8(r16)
   256b4:	81c00517 	ldw	r7,20(r16)
   256b8:	1100022e 	bgeu	r2,r4,256c4 <__sfvwrite_r+0x24c>
   256bc:	99e7883a 	add	r19,r19,r7
   256c0:	9dc01816 	blt	r19,r23,25724 <__sfvwrite_r+0x2ac>
   256c4:	b9c03b16 	blt	r23,r7,257b4 <__sfvwrite_r+0x33c>
   256c8:	80800917 	ldw	r2,36(r16)
   256cc:	81400717 	ldw	r5,28(r16)
   256d0:	a809883a 	mov	r4,r21
   256d4:	d8c00015 	stw	r3,0(sp)
   256d8:	e00d883a 	mov	r6,fp
   256dc:	103ee83a 	callr	r2
   256e0:	1027883a 	mov	r19,r2
   256e4:	d8c00017 	ldw	r3,0(sp)
   256e8:	00bfe20e 	bge	zero,r2,25674 <__sfvwrite_r+0x1fc>
   256ec:	b4edc83a 	sub	r22,r22,r19
   256f0:	b0001a26 	beq	r22,zero,2575c <__sfvwrite_r+0x2e4>
   256f4:	a0800217 	ldw	r2,8(r20)
   256f8:	e4f9883a 	add	fp,fp,r19
   256fc:	94e5c83a 	sub	r18,r18,r19
   25700:	14e7c83a 	sub	r19,r2,r19
   25704:	a4c00215 	stw	r19,8(r20)
   25708:	983f8c26 	beq	r19,zero,2553c <__sfvwrite_r+0xc4>
   2570c:	903fe21e 	bne	r18,zero,25698 <__sfvwrite_r+0x220>
   25710:	8f000017 	ldw	fp,0(r17)
   25714:	8c800117 	ldw	r18,4(r17)
   25718:	0007883a 	mov	r3,zero
   2571c:	8c400204 	addi	r17,r17,8
   25720:	003fdc06 	br	25694 <__sfvwrite_r+0x21c>
   25724:	e00b883a 	mov	r5,fp
   25728:	980d883a 	mov	r6,r19
   2572c:	d8c00015 	stw	r3,0(sp)
   25730:	00266fc0 	call	266fc <memmove>
   25734:	80800017 	ldw	r2,0(r16)
   25738:	a809883a 	mov	r4,r21
   2573c:	800b883a 	mov	r5,r16
   25740:	14c5883a 	add	r2,r2,r19
   25744:	80800015 	stw	r2,0(r16)
   25748:	0024b680 	call	24b68 <_fflush_r>
   2574c:	d8c00017 	ldw	r3,0(sp)
   25750:	103fc81e 	bne	r2,zero,25674 <__sfvwrite_r+0x1fc>
   25754:	b4edc83a 	sub	r22,r22,r19
   25758:	b03fe61e 	bne	r22,zero,256f4 <__sfvwrite_r+0x27c>
   2575c:	a809883a 	mov	r4,r21
   25760:	800b883a 	mov	r5,r16
   25764:	0024b680 	call	24b68 <_fflush_r>
   25768:	103fc21e 	bne	r2,zero,25674 <__sfvwrite_r+0x1fc>
   2576c:	0007883a 	mov	r3,zero
   25770:	003fe006 	br	256f4 <__sfvwrite_r+0x27c>
   25774:	81000017 	ldw	r4,0(r16)
   25778:	80800417 	ldw	r2,16(r16)
   2577c:	1100022e 	bgeu	r2,r4,25788 <__sfvwrite_r+0x310>
   25780:	9839883a 	mov	fp,r19
   25784:	9c806036 	bltu	r19,r18,25908 <__sfvwrite_r+0x490>
   25788:	81c00517 	ldw	r7,20(r16)
   2578c:	91c01c36 	bltu	r18,r7,25800 <__sfvwrite_r+0x388>
   25790:	80800917 	ldw	r2,36(r16)
   25794:	81400717 	ldw	r5,28(r16)
   25798:	a809883a 	mov	r4,r21
   2579c:	b00d883a 	mov	r6,r22
   257a0:	103ee83a 	callr	r2
   257a4:	1027883a 	mov	r19,r2
   257a8:	00bfb20e 	bge	zero,r2,25674 <__sfvwrite_r+0x1fc>
   257ac:	1039883a 	mov	fp,r2
   257b0:	003f9806 	br	25614 <__sfvwrite_r+0x19c>
   257b4:	b80d883a 	mov	r6,r23
   257b8:	e00b883a 	mov	r5,fp
   257bc:	d8c00015 	stw	r3,0(sp)
   257c0:	00266fc0 	call	266fc <memmove>
   257c4:	80800217 	ldw	r2,8(r16)
   257c8:	81000017 	ldw	r4,0(r16)
   257cc:	b827883a 	mov	r19,r23
   257d0:	15c5c83a 	sub	r2,r2,r23
   257d4:	25ef883a 	add	r23,r4,r23
   257d8:	80800215 	stw	r2,8(r16)
   257dc:	85c00015 	stw	r23,0(r16)
   257e0:	d8c00017 	ldw	r3,0(sp)
   257e4:	003fc106 	br	256ec <__sfvwrite_r+0x274>
   257e8:	81000017 	ldw	r4,0(r16)
   257ec:	902f883a 	mov	r23,r18
   257f0:	9039883a 	mov	fp,r18
   257f4:	9027883a 	mov	r19,r18
   257f8:	900f883a 	mov	r7,r18
   257fc:	003f7a06 	br	255e8 <__sfvwrite_r+0x170>
   25800:	b00b883a 	mov	r5,r22
   25804:	900d883a 	mov	r6,r18
   25808:	00266fc0 	call	266fc <memmove>
   2580c:	80c00217 	ldw	r3,8(r16)
   25810:	80800017 	ldw	r2,0(r16)
   25814:	9027883a 	mov	r19,r18
   25818:	1c87c83a 	sub	r3,r3,r18
   2581c:	1485883a 	add	r2,r2,r18
   25820:	80c00215 	stw	r3,8(r16)
   25824:	80800015 	stw	r2,0(r16)
   25828:	9039883a 	mov	fp,r18
   2582c:	003f7906 	br	25614 <__sfvwrite_r+0x19c>
   25830:	e009883a 	mov	r4,fp
   25834:	01400284 	movi	r5,10
   25838:	900d883a 	mov	r6,r18
   2583c:	00264c40 	call	264c4 <memchr>
   25840:	10003c26 	beq	r2,zero,25934 <__sfvwrite_r+0x4bc>
   25844:	15800044 	addi	r22,r2,1
   25848:	b72dc83a 	sub	r22,r22,fp
   2584c:	00c00044 	movi	r3,1
   25850:	003f9206 	br	2569c <__sfvwrite_r+0x224>
   25854:	81000517 	ldw	r4,20(r16)
   25858:	81400417 	ldw	r5,16(r16)
   2585c:	80c00017 	ldw	r3,0(r16)
   25860:	210d883a 	add	r6,r4,r4
   25864:	3109883a 	add	r4,r6,r4
   25868:	2026d7fa 	srli	r19,r4,31
   2586c:	1979c83a 	sub	fp,r3,r5
   25870:	e1800044 	addi	r6,fp,1
   25874:	9909883a 	add	r4,r19,r4
   25878:	2027d07a 	srai	r19,r4,1
   2587c:	3489883a 	add	r4,r6,r18
   25880:	980d883a 	mov	r6,r19
   25884:	9900022e 	bgeu	r19,r4,25890 <__sfvwrite_r+0x418>
   25888:	2027883a 	mov	r19,r4
   2588c:	200d883a 	mov	r6,r4
   25890:	1081000c 	andi	r2,r2,1024
   25894:	10bfffcc 	andi	r2,r2,65535
   25898:	10a0001c 	xori	r2,r2,32768
   2589c:	10a00004 	addi	r2,r2,-32768
   258a0:	a809883a 	mov	r4,r21
   258a4:	103f6b26 	beq	r2,zero,25654 <__sfvwrite_r+0x1dc>
   258a8:	300b883a 	mov	r5,r6
   258ac:	0025d400 	call	25d40 <_malloc_r>
   258b0:	102f883a 	mov	r23,r2
   258b4:	103f6d26 	beq	r2,zero,2566c <__sfvwrite_r+0x1f4>
   258b8:	81400417 	ldw	r5,16(r16)
   258bc:	1009883a 	mov	r4,r2
   258c0:	e00d883a 	mov	r6,fp
   258c4:	00265bc0 	call	265bc <memcpy>
   258c8:	8080030b 	ldhu	r2,12(r16)
   258cc:	00fedfc4 	movi	r3,-1153
   258d0:	10c4703a 	and	r2,r2,r3
   258d4:	10802014 	ori	r2,r2,128
   258d8:	8080030d 	sth	r2,12(r16)
   258dc:	bf09883a 	add	r4,r23,fp
   258e0:	9f07c83a 	sub	r3,r19,fp
   258e4:	85c00415 	stw	r23,16(r16)
   258e8:	84c00515 	stw	r19,20(r16)
   258ec:	81000015 	stw	r4,0(r16)
   258f0:	902f883a 	mov	r23,r18
   258f4:	80c00215 	stw	r3,8(r16)
   258f8:	9039883a 	mov	fp,r18
   258fc:	9027883a 	mov	r19,r18
   25900:	900f883a 	mov	r7,r18
   25904:	003f3806 	br	255e8 <__sfvwrite_r+0x170>
   25908:	b00b883a 	mov	r5,r22
   2590c:	980d883a 	mov	r6,r19
   25910:	00266fc0 	call	266fc <memmove>
   25914:	80800017 	ldw	r2,0(r16)
   25918:	a809883a 	mov	r4,r21
   2591c:	800b883a 	mov	r5,r16
   25920:	14c5883a 	add	r2,r2,r19
   25924:	80800015 	stw	r2,0(r16)
   25928:	0024b680 	call	24b68 <_fflush_r>
   2592c:	103f3926 	beq	r2,zero,25614 <__sfvwrite_r+0x19c>
   25930:	003f5006 	br	25674 <__sfvwrite_r+0x1fc>
   25934:	95800044 	addi	r22,r18,1
   25938:	00c00044 	movi	r3,1
   2593c:	003f5706 	br	2569c <__sfvwrite_r+0x224>
   25940:	80c0030b 	ldhu	r3,12(r16)
   25944:	00bfffc4 	movi	r2,-1
   25948:	18c01014 	ori	r3,r3,64
   2594c:	80c0030d 	sth	r3,12(r16)
   25950:	00c00244 	movi	r3,9
   25954:	a8c00015 	stw	r3,0(r21)
   25958:	003ef906 	br	25540 <__sfvwrite_r+0xc8>

0002595c <_fwalk>:
