
CPU_1c_p3_sub_cpu_0.elf:     file format elf32-littlenios2
CPU_1c_p3_sub_cpu_0.elf
architecture: nios2:r1, flags 0x00000112:
EXEC_P, HAS_SYMS, D_PAGED
start address 0x00008230

Program Header:
    LOAD off    0x00001000 vaddr 0x00008000 paddr 0x00008000 align 2**12
         filesz 0x00000020 memsz 0x00000020 flags r-x
    LOAD off    0x00001020 vaddr 0x00008020 paddr 0x00008020 align 2**12
         filesz 0x00003244 memsz 0x00003244 flags r-x
    LOAD off    0x00004264 vaddr 0x0000b264 paddr 0x0000b5f8 align 2**12
         filesz 0x00000394 memsz 0x00000394 flags rw-
    LOAD off    0x0000498c vaddr 0x0000b98c paddr 0x0000b98c align 2**12
         filesz 0x00000000 memsz 0x0000012c flags rw-

Sections:
Idx Name          Size      VMA       LMA       File off  Algn
  0 .entry        00000020  00008000  00008000  00001000  2**5
                  CONTENTS, ALLOC, LOAD, READONLY, CODE
  1 .exceptions   00000210  00008020  00008020  00001020  2**2
                  CONTENTS, ALLOC, LOAD, READONLY, CODE
  2 .text         00002ff8  00008230  00008230  00001230  2**2
                  CONTENTS, ALLOC, LOAD, READONLY, CODE
  3 .rodata       0000003c  0000b228  0000b228  00004228  2**2
                  CONTENTS, ALLOC, LOAD, READONLY, DATA
  4 .rwdata       00000394  0000b264  0000b5f8  00004264  2**2
                  CONTENTS, ALLOC, LOAD, DATA, SMALL_DATA
  5 .bss          0000012c  0000b98c  0000b98c  0000498c  2**2
                  ALLOC, SMALL_DATA
  6 .CPU_1c_p3_oc_ram_0 00000000  0000bab8  0000bab8  000045f8  2**0
                  CONTENTS
  7 .comment      00000023  00000000  00000000  000045f8  2**0
                  CONTENTS, READONLY
  8 .debug_aranges 00000680  00000000  00000000  00004620  2**3
                  CONTENTS, READONLY, DEBUGGING
  9 .debug_info   00007c78  00000000  00000000  00004ca0  2**0
                  CONTENTS, READONLY, DEBUGGING
 10 .debug_abbrev 00002da2  00000000  00000000  0000c918  2**0
                  CONTENTS, READONLY, DEBUGGING
 11 .debug_line   00002feb  00000000  00000000  0000f6ba  2**0
                  CONTENTS, READONLY, DEBUGGING
 12 .debug_frame  00000fd4  00000000  00000000  000126a8  2**2
                  CONTENTS, READONLY, DEBUGGING
 13 .debug_str    00001f50  00000000  00000000  0001367c  2**0
                  CONTENTS, READONLY, DEBUGGING
 14 .debug_loc    00000835  00000000  00000000  000155cc  2**0
                  CONTENTS, READONLY, DEBUGGING
 15 .debug_alt_sim_info 00000010  00000000  00000000  00015e04  2**2
                  CONTENTS, READONLY, DEBUGGING
 16 .debug_ranges 000001b0  00000000  00000000  00015e18  2**3
                  CONTENTS, READONLY, DEBUGGING
 17 .thread_model 00000003  00000000  00000000  000180d8  2**0
                  CONTENTS, READONLY
 18 .cpu          00000013  00000000  00000000  000180db  2**0
                  CONTENTS, READONLY
 19 .qsys         00000001  00000000  00000000  000180ee  2**0
                  CONTENTS, READONLY
 20 .simulation_enabled 00000001  00000000  00000000  000180ef  2**0
                  CONTENTS, READONLY
 21 .stderr_dev   00000010  00000000  00000000  000180f0  2**0
                  CONTENTS, READONLY
 22 .stdin_dev    00000010  00000000  00000000  00018100  2**0
                  CONTENTS, READONLY
 23 .stdout_dev   00000010  00000000  00000000  00018110  2**0
                  CONTENTS, READONLY
 24 .sopc_system_name 00000009  00000000  00000000  00018120  2**0
                  CONTENTS, READONLY
 25 .sopcinfo     00392c0e  00000000  00000000  00018129  2**0
                  CONTENTS, READONLY
SYMBOL TABLE:
00008000 l    d  .entry	00000000 .entry
00008020 l    d  .exceptions	00000000 .exceptions
00008230 l    d  .text	00000000 .text
0000b228 l    d  .rodata	00000000 .rodata
0000b264 l    d  .rwdata	00000000 .rwdata
0000b98c l    d  .bss	00000000 .bss
0000bab8 l    d  .CPU_1c_p3_oc_ram_0	00000000 .CPU_1c_p3_oc_ram_0
00000000 l    d  .comment	00000000 .comment
00000000 l    d  .debug_aranges	00000000 .debug_aranges
00000000 l    d  .debug_info	00000000 .debug_info
00000000 l    d  .debug_abbrev	00000000 .debug_abbrev
00000000 l    d  .debug_line	00000000 .debug_line
00000000 l    d  .debug_frame	00000000 .debug_frame
00000000 l    d  .debug_str	00000000 .debug_str
00000000 l    d  .debug_loc	00000000 .debug_loc
00000000 l    d  .debug_alt_sim_info	00000000 .debug_alt_sim_info
00000000 l    d  .debug_ranges	00000000 .debug_ranges
00000000 l    df *ABS*	00000000 ../1c_p3_bsp/obj/HAL/src/crt0.o
00008268 l       .text	00000000 alt_after_alt_main
00000000 l    df *ABS*	00000000 alt_irq_handler.c
00000000 l    df *ABS*	00000000 alt_instruction_exception_entry.c
00000000 l    df *ABS*	00000000 main.c
0000b5b4 l     O .rwdata	00000002 c2.2308
0000b5b6 l     O .rwdata	00000002 c6.2311
0000b5b8 l     O .rwdata	00000002 s2.2314
0000b5ba l     O .rwdata	00000002 c7.2312
0000b5bc l     O .rwdata	00000002 c5.2310
0000b5be l     O .rwdata	00000002 c3.2309
0000b5c0 l     O .rwdata	00000002 c1.2307
0000b5c2 l     O .rwdata	00000002 s1.2313
0000b5c4 l     O .rwdata	00000002 s3.2315
00000000 l    df *ABS*	00000000 queue_wrapper.c
00000000 l    df *ABS*	00000000 mem_info.c
00000000 l    df *ABS*	00000000 queue.c
00000000 l    df *ABS*	00000000 lib2-mul.c
00000000 l    df *ABS*	00000000 malloc.c
00000000 l    df *ABS*	00000000 nano-mallocr.c
00000000 l    df *ABS*	00000000 nano-mallocr.c
00000000 l    df *ABS*	00000000 sbrkr.c
00000000 l    df *ABS*	00000000 impure.c
0000b300 l     O .rwdata	000000e0 impure_data
00000000 l    df *ABS*	00000000 int_errno.c
00000000 l    df *ABS*	00000000 alt_load.c
00009494 l     F .text	00000068 alt_load_section
00000000 l    df *ABS*	00000000 alt_main.c
00000000 l    df *ABS*	00000000 alt_sbrk.c
0000b5d0 l     O .rwdata	00000004 heap_end
00000000 l    df *ABS*	00000000 alt_sys_init.c
000096ac l     F .text	00000034 alt_dev_reg
0000b3e0 l     O .rwdata	0000002c CPU_1c_p3_uart_0
00000000 l    df *ABS*	00000000 altera_avalon_fifo_util.c
00000000 l    df *ABS*	00000000 altera_avalon_jtag_uart_fd.c
00000000 l    df *ABS*	00000000 altera_avalon_jtag_uart_read.c
00000000 l    df *ABS*	00000000 altera_avalon_jtag_uart_write.c
00000000 l    df *ABS*	00000000 altera_avalon_timer_sc.c
00009eb0 l     F .text	00000078 alt_avalon_timer_sc_irq
00000000 l    df *ABS*	00000000 alt_close.c
00009fa4 l     F .text	0000003c alt_get_errno
00000000 l    df *ABS*	00000000 alt_dcache_flush_all.c
00000000 l    df *ABS*	00000000 alt_dev.c
0000a0d8 l     F .text	0000002c alt_dev_null_write
00000000 l    df *ABS*	00000000 alt_dev_llist_insert.c
0000a104 l     F .text	0000003c alt_get_errno
00000000 l    df *ABS*	00000000 alt_do_ctors.c
00000000 l    df *ABS*	00000000 alt_do_dtors.c
00000000 l    df *ABS*	00000000 alt_errno.c
00000000 l    df *ABS*	00000000 alt_icache_flush_all.c
00000000 l    df *ABS*	00000000 alt_iic.c
00000000 l    df *ABS*	00000000 alt_iic_isr_register.c
00000000 l    df *ABS*	00000000 alt_io_redirect.c
0000a564 l     F .text	000000e4 alt_open_fd
00000000 l    df *ABS*	00000000 alt_irq_vars.c
00000000 l    df *ABS*	00000000 alt_open.c
0000a6c4 l     F .text	0000003c alt_get_errno
0000a700 l     F .text	000000ec alt_file_locked
00000000 l    df *ABS*	00000000 alt_release_fd.c
00000000 l    df *ABS*	00000000 alt_tick.c
00000000 l    df *ABS*	00000000 altera_nios2_gen2_irq.c
00000000 l    df *ABS*	00000000 alt_find_dev.c
00000000 l    df *ABS*	00000000 alt_find_file.c
00000000 l    df *ABS*	00000000 alt_get_fd.c
00000000 l    df *ABS*	00000000 atexit.c
00000000 l    df *ABS*	00000000 exit.c
00000000 l    df *ABS*	00000000 memcmp.c
00000000 l    df *ABS*	00000000 strlen.c
00000000 l    df *ABS*	00000000 __atexit.c
00000000 l    df *ABS*	00000000 __call_atexit.c
00000000 l    df *ABS*	00000000 alt_exit.c
0000b9b4 g     O .bss	00000004 alt_instruction_exception_handler
00009580 g     F .text	0000007c alt_main
00008e04 g     F .text	00000030 setProgStatus
0000b9b8 g     O .bss	00000100 alt_irq
000099f4 g     F .text	0000005c altera_avalon_fifo_write_almostfull
0000b5f8 g       *ABS*	00000000 __flash_rwdata_start
0000bab8 g       *ABS*	00000000 __alt_heap_start
0000b2d0 g     O .rwdata	0000000c qd_p1
0000976c g     F .text	00000098 altera_avalon_fifo_init
00009aac g     F .text	00000058 altera_avalon_fifo_write_fifo
0000ab70 g     F .text	00000024 altera_nios2_gen2_irq_init
0000b264 g     O .rwdata	0000000c qa_p1
00008000 g     F .entry	0000000c __reset
00009c48 g     F .text	00000028 altera_avalon_fifo_read_backpressure
00008020 g       *ABS*	00000000 __flash_exceptions_start
0000b998 g     O .bss	00000004 errno
0000b9a0 g     O .bss	00000004 alt_argv
000135b4 g       *ABS*	00000000 _gp
00009938 g     F .text	00000060 altera_avalon_fifo_clear_event
0000b434 g     O .rwdata	00000180 alt_fd_list
00009060 g     F .text	00000040 getQualityFactor
0000ab94 g     F .text	00000090 alt_find_dev
00008fe0 g     F .text	00000040 getWidth
00008d80 g     F .text	0000003c RECV
0000a648 g     F .text	0000007c alt_io_redirect
0000b228 g       *ABS*	00000000 __DTOR_END__
0000adf0 g     F .text	0000009c alt_exception_cause_generated_bad_addr
00009d30 g     F .text	000000ec altera_avalon_jtag_uart_read
000091e0 g     F .text	00000014 malloc
0000b2b8 g     O .rwdata	0000000c qc_p2
00009444 g     F .text	00000050 _sbrk_r
0000b2dc g     O .rwdata	0000000c qd_p2
00008fa0 g     F .text	00000040 getIterCount
00008d60 g     F .text	00000020 close_queues
0000b5e4 g     O .rwdata	00000004 alt_max_fd
0000b5c8 g     O .rwdata	00000004 _global_impure_ptr
0000bab8 g       *ABS*	00000000 __bss_end
0000a474 g     F .text	000000f0 alt_iic_isr_register
0000aa68 g     F .text	00000108 alt_tick
0000a428 g     F .text	0000004c alt_ic_irq_enabled
0000a9cc g     F .text	0000009c alt_alarm_stop
0000b2c4 g     O .rwdata	0000000c qc_p3
0000b9a8 g     O .bss	00000004 alt_irq_active
000090a0 g     F .text	00000040 getImageFormat
000080fc g     F .exceptions	000000d4 alt_irq_handler
0000b40c g     O .rwdata	00000028 alt_dev_null
0000a0b8 g     F .text	00000020 alt_dcache_flush_all
00009998 g     F .text	0000005c altera_avalon_fifo_write_ienable
0000b5f8 g       *ABS*	00000000 __ram_rwdata_end
000098a8 g     F .text	0000002c altera_avalon_fifo_read_almostempty
0000b5dc g     O .rwdata	00000008 alt_dev_list
0000b264 g       *ABS*	00000000 __ram_rodata_end
00008f64 g     F .text	0000003c getFileName
0000bab8 g       *ABS*	00000000 end
000081d0 g     F .exceptions	00000060 alt_instruction_exception_entry
000098d4 g     F .text	0000003c altera_avalon_fifo_read_event
0000b228 g       *ABS*	00000000 __CTOR_LIST__
0000d000 g       *ABS*	00000000 __alt_stack_pointer
00009f28 g     F .text	0000007c alt_avalon_timer_sc_init
00009e1c g     F .text	00000094 altera_avalon_jtag_uart_write
00009b70 g     F .text	0000004c altera_avalon_fifo_read_fifo
00009208 g     F .text	000000e4 _free_r
0000b064 g     F .text	00000190 __call_exitprocs
0000b2ac g     O .rwdata	0000000c qc_p1
00008230 g     F .text	0000003c _start
0000b9ac g     O .bss	00000004 _alt_tick_rate
0000b270 g     O .rwdata	0000000c qa_p2
000090e0 g     F .text	00000070 enqueueINT32
0000b9b0 g     O .bss	00000004 _alt_nticks
00009718 g     F .text	00000054 alt_sys_init
0000b2f4 g     O .rwdata	0000000c qe
0000af0c g     F .text	00000158 __register_exitproc
00008ee4 g     F .text	00000080 setMemInfo
00008e34 g     F .text	00000024 getProgStatus
000091b8 g     F .text	00000028 .hidden __mulsi3
0000b264 g       *ABS*	00000000 __ram_rwdata_start
0000b228 g       *ABS*	00000000 __ram_rodata_start
00009c70 g     F .text	00000060 altera_avalon_jtag_uart_read_fd
0000ad2c g     F .text	000000c4 alt_get_fd
0000aec0 g     F .text	00000030 memcmp
0000bab8 g       *ABS*	00000000 __alt_stack_base
00008000 g       *ABS*	00000000 __alt_mem_CPU_1c_p3_oc_ram_0
00009804 g     F .text	0000003c altera_avalon_fifo_read_status
00009c1c g     F .text	0000002c altera_avalon_fifo_read_other_info
0000ac24 g     F .text	00000108 alt_find_file
0000a140 g     F .text	000000a4 alt_dev_llist_insert
000095fc g     F .text	000000b0 sbrk
00008d40 g     F .text	00000020 init_queues
0000b98c g       *ABS*	00000000 __bss_start
0000b98c g     O .bss	00000004 data
00008cdc g     F .text	00000064 main
0000b9a4 g     O .bss	00000004 alt_envp
00009cd0 g     F .text	00000060 altera_avalon_jtag_uart_write_fd
00009910 g     F .text	00000028 altera_avalon_fifo_read_level
0000b2a0 g     O .rwdata	0000000c qb_p3
0000d000 g       *ABS*	00000000 __alt_heap_limit
000092ec g     F .text	00000158 _malloc_r
0000b5e8 g     O .rwdata	00000004 alt_errno
0000b228 g       *ABS*	00000000 __CTOR_END__
0000b228 g       *ABS*	00000000 __flash_rodata_start
0000b228 g       *ABS*	00000000 __DTOR_LIST__
0000826c g     F .text	00000a70 DCT
000096e0 g     F .text	00000038 alt_irq_init
0000a948 g     F .text	00000084 alt_release_fd
0000ae8c g     F .text	00000014 atexit
00008dbc g     F .text	00000048 SEND
0000b5cc g     O .rwdata	00000004 _impure_ptr
0000b99c g     O .bss	00000004 alt_argc
0000a244 g     F .text	00000060 _do_dtors
00008020 g       .exceptions	00000000 alt_irq_entry
0000b5d4 g     O .rwdata	00000008 alt_fs_list
0000b288 g     O .rwdata	0000000c qb_p1
0000b27c g     O .rwdata	0000000c qa_p3
00008020 g       *ABS*	00000000 __ram_exceptions_start
0000b2e8 g     O .rwdata	0000000c qd_p3
00009bbc g     F .text	00000060 altera_avalon_fifo_write_other_info
0000a2c4 g     F .text	00000050 alt_ic_isr_register
0000b5f8 g       *ABS*	00000000 _edata
0000bab8 g       *ABS*	00000000 _end
00008230 g       *ABS*	00000000 __ram_exceptions_end
0000a39c g     F .text	0000008c alt_ic_irq_disable
0000aea0 g     F .text	00000020 exit
00009840 g     F .text	0000003c altera_avalon_fifo_read_ienable
0000d000 g       *ABS*	00000000 __alt_data_end
00008020 g     F .exceptions	00000000 alt_exception
0000b294 g     O .rwdata	0000000c qb_p2
0000b1f4 g     F .text	00000034 _exit
0000987c g     F .text	0000002c altera_avalon_fifo_read_almostfull
0000aef0 g     F .text	0000001c strlen
0000a7ec g     F .text	0000015c open
00009b04 g     F .text	0000006c altera_avalon_read_fifo
00008e58 g     F .text	0000008c setFileName
0000b990 g     O .bss	00000004 __malloc_sbrk_start
00009150 g     F .text	00000068 dequeueINT32
0000a2a4 g     F .text	00000020 alt_icache_flush_all
0000b5ec g     O .rwdata	00000004 alt_priority_mask
0000b994 g     O .bss	00000004 __malloc_free_list
0000a314 g     F .text	00000088 alt_ic_irq_enable
00009020 g     F .text	00000040 getHeight
00009a50 g     F .text	0000005c altera_avalon_fifo_write_almostempty
0000b5f0 g     O .rwdata	00000008 alt_alarm_list
0000a1e4 g     F .text	00000060 _do_ctors
00009fe0 g     F .text	000000d8 close
000094fc g     F .text	00000084 alt_load
000091f4 g     F .text	00000014 free



Disassembly of section .entry:

00008000 <__reset>:
    8000:	00400034 	movhi	at,0
    8004:	08608c14 	ori	at,at,33328
    8008:	0800683a 	jmp	at
	...

Disassembly of section .exceptions:

00008020 <alt_exception>:
    8020:	deffed04 	addi	sp,sp,-76
    8024:	dfc00015 	stw	ra,0(sp)
    8028:	d8400215 	stw	at,8(sp)
    802c:	d8800315 	stw	r2,12(sp)
    8030:	d8c00415 	stw	r3,16(sp)
    8034:	d9000515 	stw	r4,20(sp)
    8038:	d9400615 	stw	r5,24(sp)
    803c:	d9800715 	stw	r6,28(sp)
    8040:	d9c00815 	stw	r7,32(sp)
    8044:	000b307a 	rdctl	r5,estatus
    8048:	da000915 	stw	r8,36(sp)
    804c:	da400a15 	stw	r9,40(sp)
    8050:	da800b15 	stw	r10,44(sp)
    8054:	dac00c15 	stw	r11,48(sp)
    8058:	db000d15 	stw	r12,52(sp)
    805c:	db400e15 	stw	r13,56(sp)
    8060:	db800f15 	stw	r14,60(sp)
    8064:	dbc01015 	stw	r15,64(sp)
    8068:	d9401115 	stw	r5,68(sp)
    806c:	ebffff04 	addi	r15,ea,-4
    8070:	dbc01215 	stw	r15,72(sp)
    8074:	0009313a 	rdctl	r4,ipending
    8078:	2880004c 	andi	r2,r5,1
    807c:	10000326 	beq	r2,zero,808c <alt_exception+0x6c>
    8080:	20000226 	beq	r4,zero,808c <alt_exception+0x6c>
    8084:	00080fc0 	call	80fc <alt_irq_handler>
    8088:	00000706 	br	80a8 <alt_exception+0x88>
    808c:	df401215 	stw	ea,72(sp)
    8090:	e8bfff17 	ldw	r2,-4(ea)
    8094:	e93fff04 	addi	r4,ea,-4
    8098:	00081d00 	call	81d0 <alt_instruction_exception_entry>
    809c:	1000021e 	bne	r2,zero,80a8 <alt_exception+0x88>
    80a0:	ebffff04 	addi	r15,ea,-4
    80a4:	dbc01215 	stw	r15,72(sp)
    80a8:	d9401117 	ldw	r5,68(sp)
    80ac:	df401217 	ldw	ea,72(sp)
    80b0:	dfc00017 	ldw	ra,0(sp)
    80b4:	2801707a 	wrctl	estatus,r5
    80b8:	d8400217 	ldw	at,8(sp)
    80bc:	d8800317 	ldw	r2,12(sp)
    80c0:	d8c00417 	ldw	r3,16(sp)
    80c4:	d9000517 	ldw	r4,20(sp)
    80c8:	d9400617 	ldw	r5,24(sp)
    80cc:	d9800717 	ldw	r6,28(sp)
    80d0:	d9c00817 	ldw	r7,32(sp)
    80d4:	da000917 	ldw	r8,36(sp)
    80d8:	da400a17 	ldw	r9,40(sp)
    80dc:	da800b17 	ldw	r10,44(sp)
    80e0:	dac00c17 	ldw	r11,48(sp)
    80e4:	db000d17 	ldw	r12,52(sp)
    80e8:	db400e17 	ldw	r13,56(sp)
    80ec:	db800f17 	ldw	r14,60(sp)
    80f0:	dbc01017 	ldw	r15,64(sp)
    80f4:	dec01304 	addi	sp,sp,76
    80f8:	ef80083a 	eret

000080fc <alt_irq_handler>:
    80fc:	defff904 	addi	sp,sp,-28
    8100:	dfc00615 	stw	ra,24(sp)
    8104:	df000515 	stw	fp,20(sp)
    8108:	df000504 	addi	fp,sp,20
    810c:	0001883a 	nop
    8110:	0005313a 	rdctl	r2,ipending
    8114:	e0bffe15 	stw	r2,-8(fp)
    8118:	e0bffe17 	ldw	r2,-8(fp)
    811c:	e0bffb15 	stw	r2,-20(fp)
    8120:	e03ffd15 	stw	zero,-12(fp)
    8124:	00800044 	movi	r2,1
    8128:	e0bffc15 	stw	r2,-16(fp)
    812c:	e0fffb17 	ldw	r3,-20(fp)
    8130:	e0bffc17 	ldw	r2,-16(fp)
    8134:	1884703a 	and	r2,r3,r2
    8138:	10001426 	beq	r2,zero,818c <alt_irq_handler+0x90>
    813c:	00800074 	movhi	r2,1
    8140:	10ae6e04 	addi	r2,r2,-17992
    8144:	e0fffd17 	ldw	r3,-12(fp)
    8148:	180690fa 	slli	r3,r3,3
    814c:	10c5883a 	add	r2,r2,r3
    8150:	10c00017 	ldw	r3,0(r2)
    8154:	00800074 	movhi	r2,1
    8158:	10ae6e04 	addi	r2,r2,-17992
    815c:	e13ffd17 	ldw	r4,-12(fp)
    8160:	200890fa 	slli	r4,r4,3
    8164:	1105883a 	add	r2,r2,r4
    8168:	10800104 	addi	r2,r2,4
    816c:	10800017 	ldw	r2,0(r2)
    8170:	1009883a 	mov	r4,r2
    8174:	183ee83a 	callr	r3
    8178:	0001883a 	nop
    817c:	0005313a 	rdctl	r2,ipending
    8180:	e0bfff15 	stw	r2,-4(fp)
    8184:	e0bfff17 	ldw	r2,-4(fp)
    8188:	00000706 	br	81a8 <alt_irq_handler+0xac>
    818c:	e0bffc17 	ldw	r2,-16(fp)
    8190:	1085883a 	add	r2,r2,r2
    8194:	e0bffc15 	stw	r2,-16(fp)
    8198:	e0bffd17 	ldw	r2,-12(fp)
    819c:	10800044 	addi	r2,r2,1
    81a0:	e0bffd15 	stw	r2,-12(fp)
    81a4:	003fe106 	br	812c <_gp+0xffff4b78>
    81a8:	e0bffb15 	stw	r2,-20(fp)
    81ac:	e0bffb17 	ldw	r2,-20(fp)
    81b0:	103fdb1e 	bne	r2,zero,8120 <_gp+0xffff4b6c>
    81b4:	0001883a 	nop
    81b8:	0001883a 	nop
    81bc:	e037883a 	mov	sp,fp
    81c0:	dfc00117 	ldw	ra,4(sp)
    81c4:	df000017 	ldw	fp,0(sp)
    81c8:	dec00204 	addi	sp,sp,8
    81cc:	f800283a 	ret

000081d0 <alt_instruction_exception_entry>:
    81d0:	defffb04 	addi	sp,sp,-20
    81d4:	dfc00415 	stw	ra,16(sp)
    81d8:	df000315 	stw	fp,12(sp)
    81dc:	df000304 	addi	fp,sp,12
    81e0:	e13fff15 	stw	r4,-4(fp)
    81e4:	00bfffc4 	movi	r2,-1
    81e8:	e0bffd15 	stw	r2,-12(fp)
    81ec:	e03ffe15 	stw	zero,-8(fp)
    81f0:	d0a10017 	ldw	r2,-31744(gp)
    81f4:	10000726 	beq	r2,zero,8214 <alt_instruction_exception_entry+0x44>
    81f8:	d0a10017 	ldw	r2,-31744(gp)
    81fc:	e0fffd17 	ldw	r3,-12(fp)
    8200:	e1bffe17 	ldw	r6,-8(fp)
    8204:	e17fff17 	ldw	r5,-4(fp)
    8208:	1809883a 	mov	r4,r3
    820c:	103ee83a 	callr	r2
    8210:	00000206 	br	821c <alt_instruction_exception_entry+0x4c>
    8214:	003da03a 	break	0
    8218:	0005883a 	mov	r2,zero
    821c:	e037883a 	mov	sp,fp
    8220:	dfc00117 	ldw	ra,4(sp)
    8224:	df000017 	ldw	fp,0(sp)
    8228:	dec00204 	addi	sp,sp,8
    822c:	f800283a 	ret

Disassembly of section .text:

00008230 <_start>:
    8230:	06c00034 	movhi	sp,0
    8234:	def40014 	ori	sp,sp,53248
    8238:	06800074 	movhi	gp,1
    823c:	d68d6d14 	ori	gp,gp,13748
    8240:	00800034 	movhi	r2,0
    8244:	10ae6314 	ori	r2,r2,47500
    8248:	00c00034 	movhi	r3,0
    824c:	18eeae14 	ori	r3,r3,47800
    8250:	10c00326 	beq	r2,r3,8260 <_start+0x30>
    8254:	10000015 	stw	zero,0(r2)
    8258:	10800104 	addi	r2,r2,4
    825c:	10fffd36 	bltu	r2,r3,8254 <_gp+0xffff4ca0>
    8260:	00094fc0 	call	94fc <alt_load>
    8264:	00095800 	call	9580 <alt_main>

00008268 <alt_after_alt_main>:
    8268:	003fff06 	br	8268 <_gp+0xffff4cb4>

0000826c <DCT>:
    826c:	defff204 	addi	sp,sp,-56
    8270:	dfc00d15 	stw	ra,52(sp)
    8274:	df000c15 	stw	fp,48(sp)
    8278:	dc400b15 	stw	r17,44(sp)
    827c:	dc000a15 	stw	r16,40(sp)
    8280:	df000c04 	addi	fp,sp,48
    8284:	e03ff40d 	sth	zero,-48(fp)
    8288:	00000906 	br	82b0 <DCT+0x44>
    828c:	d0e0f617 	ldw	r3,-31784(gp)
    8290:	e0bff40b 	ldhu	r2,-48(fp)
    8294:	1085883a 	add	r2,r2,r2
    8298:	18a1883a 	add	r16,r3,r2
    829c:	0008d800 	call	8d80 <RECV>
    82a0:	8080000d 	sth	r2,0(r16)
    82a4:	e0bff40b 	ldhu	r2,-48(fp)
    82a8:	10800044 	addi	r2,r2,1
    82ac:	e0bff40d 	sth	r2,-48(fp)
    82b0:	e0bff40b 	ldhu	r2,-48(fp)
    82b4:	10801030 	cmpltui	r2,r2,64
    82b8:	103ff41e 	bne	r2,zero,828c <_gp+0xffff4cd8>
    82bc:	00800204 	movi	r2,8
    82c0:	e0bff40d 	sth	r2,-48(fp)
    82c4:	00012d06 	br	877c <DCT+0x510>
    82c8:	d0a0f617 	ldw	r2,-31784(gp)
    82cc:	1080000b 	ldhu	r2,0(r2)
    82d0:	10ffffcc 	andi	r3,r2,65535
    82d4:	18e0001c 	xori	r3,r3,32768
    82d8:	18e00004 	addi	r3,r3,-32768
    82dc:	d0a0f617 	ldw	r2,-31784(gp)
    82e0:	10800384 	addi	r2,r2,14
    82e4:	1080000b 	ldhu	r2,0(r2)
    82e8:	10bfffcc 	andi	r2,r2,65535
    82ec:	10a0001c 	xori	r2,r2,32768
    82f0:	10a00004 	addi	r2,r2,-32768
    82f4:	1885883a 	add	r2,r3,r2
    82f8:	e0bff515 	stw	r2,-44(fp)
    82fc:	d0a0f617 	ldw	r2,-31784(gp)
    8300:	1080000b 	ldhu	r2,0(r2)
    8304:	10ffffcc 	andi	r3,r2,65535
    8308:	18e0001c 	xori	r3,r3,32768
    830c:	18e00004 	addi	r3,r3,-32768
    8310:	d0a0f617 	ldw	r2,-31784(gp)
    8314:	10800384 	addi	r2,r2,14
    8318:	1080000b 	ldhu	r2,0(r2)
    831c:	10bfffcc 	andi	r2,r2,65535
    8320:	10a0001c 	xori	r2,r2,32768
    8324:	10a00004 	addi	r2,r2,-32768
    8328:	1885c83a 	sub	r2,r3,r2
    832c:	e0bff615 	stw	r2,-40(fp)
    8330:	d0a0f617 	ldw	r2,-31784(gp)
    8334:	10800084 	addi	r2,r2,2
    8338:	1080000b 	ldhu	r2,0(r2)
    833c:	10ffffcc 	andi	r3,r2,65535
    8340:	18e0001c 	xori	r3,r3,32768
    8344:	18e00004 	addi	r3,r3,-32768
    8348:	d0a0f617 	ldw	r2,-31784(gp)
    834c:	10800304 	addi	r2,r2,12
    8350:	1080000b 	ldhu	r2,0(r2)
    8354:	10bfffcc 	andi	r2,r2,65535
    8358:	10a0001c 	xori	r2,r2,32768
    835c:	10a00004 	addi	r2,r2,-32768
    8360:	1885883a 	add	r2,r3,r2
    8364:	e0bff715 	stw	r2,-36(fp)
    8368:	d0a0f617 	ldw	r2,-31784(gp)
    836c:	10800084 	addi	r2,r2,2
    8370:	1080000b 	ldhu	r2,0(r2)
    8374:	10ffffcc 	andi	r3,r2,65535
    8378:	18e0001c 	xori	r3,r3,32768
    837c:	18e00004 	addi	r3,r3,-32768
    8380:	d0a0f617 	ldw	r2,-31784(gp)
    8384:	10800304 	addi	r2,r2,12
    8388:	1080000b 	ldhu	r2,0(r2)
    838c:	10bfffcc 	andi	r2,r2,65535
    8390:	10a0001c 	xori	r2,r2,32768
    8394:	10a00004 	addi	r2,r2,-32768
    8398:	1885c83a 	sub	r2,r3,r2
    839c:	e0bff815 	stw	r2,-32(fp)
    83a0:	d0a0f617 	ldw	r2,-31784(gp)
    83a4:	10800104 	addi	r2,r2,4
    83a8:	1080000b 	ldhu	r2,0(r2)
    83ac:	10ffffcc 	andi	r3,r2,65535
    83b0:	18e0001c 	xori	r3,r3,32768
    83b4:	18e00004 	addi	r3,r3,-32768
    83b8:	d0a0f617 	ldw	r2,-31784(gp)
    83bc:	10800284 	addi	r2,r2,10
    83c0:	1080000b 	ldhu	r2,0(r2)
    83c4:	10bfffcc 	andi	r2,r2,65535
    83c8:	10a0001c 	xori	r2,r2,32768
    83cc:	10a00004 	addi	r2,r2,-32768
    83d0:	1885883a 	add	r2,r3,r2
    83d4:	e0bff915 	stw	r2,-28(fp)
    83d8:	d0a0f617 	ldw	r2,-31784(gp)
    83dc:	10800104 	addi	r2,r2,4
    83e0:	1080000b 	ldhu	r2,0(r2)
    83e4:	10ffffcc 	andi	r3,r2,65535
    83e8:	18e0001c 	xori	r3,r3,32768
    83ec:	18e00004 	addi	r3,r3,-32768
    83f0:	d0a0f617 	ldw	r2,-31784(gp)
    83f4:	10800284 	addi	r2,r2,10
    83f8:	1080000b 	ldhu	r2,0(r2)
    83fc:	10bfffcc 	andi	r2,r2,65535
    8400:	10a0001c 	xori	r2,r2,32768
    8404:	10a00004 	addi	r2,r2,-32768
    8408:	1885c83a 	sub	r2,r3,r2
    840c:	e0bffa15 	stw	r2,-24(fp)
    8410:	d0a0f617 	ldw	r2,-31784(gp)
    8414:	10800184 	addi	r2,r2,6
    8418:	1080000b 	ldhu	r2,0(r2)
    841c:	10ffffcc 	andi	r3,r2,65535
    8420:	18e0001c 	xori	r3,r3,32768
    8424:	18e00004 	addi	r3,r3,-32768
    8428:	d0a0f617 	ldw	r2,-31784(gp)
    842c:	10800204 	addi	r2,r2,8
    8430:	1080000b 	ldhu	r2,0(r2)
    8434:	10bfffcc 	andi	r2,r2,65535
    8438:	10a0001c 	xori	r2,r2,32768
    843c:	10a00004 	addi	r2,r2,-32768
    8440:	1885883a 	add	r2,r3,r2
    8444:	e0bffb15 	stw	r2,-20(fp)
    8448:	d0a0f617 	ldw	r2,-31784(gp)
    844c:	10800184 	addi	r2,r2,6
    8450:	1080000b 	ldhu	r2,0(r2)
    8454:	10ffffcc 	andi	r3,r2,65535
    8458:	18e0001c 	xori	r3,r3,32768
    845c:	18e00004 	addi	r3,r3,-32768
    8460:	d0a0f617 	ldw	r2,-31784(gp)
    8464:	10800204 	addi	r2,r2,8
    8468:	1080000b 	ldhu	r2,0(r2)
    846c:	10bfffcc 	andi	r2,r2,65535
    8470:	10a0001c 	xori	r2,r2,32768
    8474:	10a00004 	addi	r2,r2,-32768
    8478:	1885c83a 	sub	r2,r3,r2
    847c:	e0bffc15 	stw	r2,-16(fp)
    8480:	e0fff517 	ldw	r3,-44(fp)
    8484:	e0bffb17 	ldw	r2,-20(fp)
    8488:	1885883a 	add	r2,r3,r2
    848c:	e0bffd15 	stw	r2,-12(fp)
    8490:	e0fff517 	ldw	r3,-44(fp)
    8494:	e0bffb17 	ldw	r2,-20(fp)
    8498:	1885c83a 	sub	r2,r3,r2
    849c:	e0bff515 	stw	r2,-44(fp)
    84a0:	e0fff717 	ldw	r3,-36(fp)
    84a4:	e0bff917 	ldw	r2,-28(fp)
    84a8:	1885883a 	add	r2,r3,r2
    84ac:	e0bffb15 	stw	r2,-20(fp)
    84b0:	e0fff717 	ldw	r3,-36(fp)
    84b4:	e0bff917 	ldw	r2,-28(fp)
    84b8:	1885c83a 	sub	r2,r3,r2
    84bc:	e0bff715 	stw	r2,-36(fp)
    84c0:	d0a0f617 	ldw	r2,-31784(gp)
    84c4:	e0fffd17 	ldw	r3,-12(fp)
    84c8:	1809883a 	mov	r4,r3
    84cc:	e0fffb17 	ldw	r3,-20(fp)
    84d0:	20c7883a 	add	r3,r4,r3
    84d4:	10c0000d 	sth	r3,0(r2)
    84d8:	d0a0f617 	ldw	r2,-31784(gp)
    84dc:	10800204 	addi	r2,r2,8
    84e0:	e0fffd17 	ldw	r3,-12(fp)
    84e4:	1809883a 	mov	r4,r3
    84e8:	e0fffb17 	ldw	r3,-20(fp)
    84ec:	20c7c83a 	sub	r3,r4,r3
    84f0:	10c0000d 	sth	r3,0(r2)
    84f4:	d0a0f617 	ldw	r2,-31784(gp)
    84f8:	14000104 	addi	r16,r2,4
    84fc:	d0a0000b 	ldhu	r2,-32768(gp)
    8500:	10bfffcc 	andi	r2,r2,65535
    8504:	e17ff517 	ldw	r5,-44(fp)
    8508:	1009883a 	mov	r4,r2
    850c:	00091b80 	call	91b8 <__mulsi3>
    8510:	1023883a 	mov	r17,r2
    8514:	d0a0008b 	ldhu	r2,-32766(gp)
    8518:	10bfffcc 	andi	r2,r2,65535
    851c:	e17ff717 	ldw	r5,-36(fp)
    8520:	1009883a 	mov	r4,r2
    8524:	00091b80 	call	91b8 <__mulsi3>
    8528:	8887883a 	add	r3,r17,r2
    852c:	d0a0010b 	ldhu	r2,-32764(gp)
    8530:	10bfffcc 	andi	r2,r2,65535
    8534:	1885d83a 	sra	r2,r3,r2
    8538:	8080000d 	sth	r2,0(r16)
    853c:	d0a0f617 	ldw	r2,-31784(gp)
    8540:	14000304 	addi	r16,r2,12
    8544:	d0a0008b 	ldhu	r2,-32766(gp)
    8548:	10bfffcc 	andi	r2,r2,65535
    854c:	e17ff517 	ldw	r5,-44(fp)
    8550:	1009883a 	mov	r4,r2
    8554:	00091b80 	call	91b8 <__mulsi3>
    8558:	1023883a 	mov	r17,r2
    855c:	d0a0000b 	ldhu	r2,-32768(gp)
    8560:	10bfffcc 	andi	r2,r2,65535
    8564:	e17ff717 	ldw	r5,-36(fp)
    8568:	1009883a 	mov	r4,r2
    856c:	00091b80 	call	91b8 <__mulsi3>
    8570:	8887c83a 	sub	r3,r17,r2
    8574:	d0a0010b 	ldhu	r2,-32764(gp)
    8578:	10bfffcc 	andi	r2,r2,65535
    857c:	1885d83a 	sra	r2,r3,r2
    8580:	8080000d 	sth	r2,0(r16)
    8584:	d0a0f617 	ldw	r2,-31784(gp)
    8588:	14000384 	addi	r16,r2,14
    858c:	d0a0018b 	ldhu	r2,-32762(gp)
    8590:	10bfffcc 	andi	r2,r2,65535
    8594:	e17ff617 	ldw	r5,-40(fp)
    8598:	1009883a 	mov	r4,r2
    859c:	00091b80 	call	91b8 <__mulsi3>
    85a0:	1023883a 	mov	r17,r2
    85a4:	d0a0020b 	ldhu	r2,-32760(gp)
    85a8:	10bfffcc 	andi	r2,r2,65535
    85ac:	e17ff817 	ldw	r5,-32(fp)
    85b0:	1009883a 	mov	r4,r2
    85b4:	00091b80 	call	91b8 <__mulsi3>
    85b8:	88a3c83a 	sub	r17,r17,r2
    85bc:	d0a0028b 	ldhu	r2,-32758(gp)
    85c0:	10bfffcc 	andi	r2,r2,65535
    85c4:	e17ffa17 	ldw	r5,-24(fp)
    85c8:	1009883a 	mov	r4,r2
    85cc:	00091b80 	call	91b8 <__mulsi3>
    85d0:	88a3883a 	add	r17,r17,r2
    85d4:	d0a0030b 	ldhu	r2,-32756(gp)
    85d8:	10bfffcc 	andi	r2,r2,65535
    85dc:	e17ffc17 	ldw	r5,-16(fp)
    85e0:	1009883a 	mov	r4,r2
    85e4:	00091b80 	call	91b8 <__mulsi3>
    85e8:	8887c83a 	sub	r3,r17,r2
    85ec:	d0a0010b 	ldhu	r2,-32764(gp)
    85f0:	10bfffcc 	andi	r2,r2,65535
    85f4:	1885d83a 	sra	r2,r3,r2
    85f8:	8080000d 	sth	r2,0(r16)
    85fc:	d0a0f617 	ldw	r2,-31784(gp)
    8600:	14000284 	addi	r16,r2,10
    8604:	d0a0020b 	ldhu	r2,-32760(gp)
    8608:	10bfffcc 	andi	r2,r2,65535
    860c:	e17ff617 	ldw	r5,-40(fp)
    8610:	1009883a 	mov	r4,r2
    8614:	00091b80 	call	91b8 <__mulsi3>
    8618:	1023883a 	mov	r17,r2
    861c:	d0a0030b 	ldhu	r2,-32756(gp)
    8620:	10bfffcc 	andi	r2,r2,65535
    8624:	e17ff817 	ldw	r5,-32(fp)
    8628:	1009883a 	mov	r4,r2
    862c:	00091b80 	call	91b8 <__mulsi3>
    8630:	88a3c83a 	sub	r17,r17,r2
    8634:	d0a0018b 	ldhu	r2,-32762(gp)
    8638:	10bfffcc 	andi	r2,r2,65535
    863c:	e17ffa17 	ldw	r5,-24(fp)
    8640:	1009883a 	mov	r4,r2
    8644:	00091b80 	call	91b8 <__mulsi3>
    8648:	88a3883a 	add	r17,r17,r2
    864c:	d0a0028b 	ldhu	r2,-32758(gp)
    8650:	10bfffcc 	andi	r2,r2,65535
    8654:	e17ffc17 	ldw	r5,-16(fp)
    8658:	1009883a 	mov	r4,r2
    865c:	00091b80 	call	91b8 <__mulsi3>
    8660:	8887883a 	add	r3,r17,r2
    8664:	d0a0010b 	ldhu	r2,-32764(gp)
    8668:	10bfffcc 	andi	r2,r2,65535
    866c:	1885d83a 	sra	r2,r3,r2
    8670:	8080000d 	sth	r2,0(r16)
    8674:	d0a0f617 	ldw	r2,-31784(gp)
    8678:	14000184 	addi	r16,r2,6
    867c:	d0a0028b 	ldhu	r2,-32758(gp)
    8680:	10bfffcc 	andi	r2,r2,65535
    8684:	e17ff617 	ldw	r5,-40(fp)
    8688:	1009883a 	mov	r4,r2
    868c:	00091b80 	call	91b8 <__mulsi3>
    8690:	1023883a 	mov	r17,r2
    8694:	d0a0018b 	ldhu	r2,-32762(gp)
    8698:	10bfffcc 	andi	r2,r2,65535
    869c:	e17ff817 	ldw	r5,-32(fp)
    86a0:	1009883a 	mov	r4,r2
    86a4:	00091b80 	call	91b8 <__mulsi3>
    86a8:	88a3c83a 	sub	r17,r17,r2
    86ac:	d0a0030b 	ldhu	r2,-32756(gp)
    86b0:	10bfffcc 	andi	r2,r2,65535
    86b4:	e17ffa17 	ldw	r5,-24(fp)
    86b8:	1009883a 	mov	r4,r2
    86bc:	00091b80 	call	91b8 <__mulsi3>
    86c0:	88a3c83a 	sub	r17,r17,r2
    86c4:	d0a0020b 	ldhu	r2,-32760(gp)
    86c8:	10bfffcc 	andi	r2,r2,65535
    86cc:	e17ffc17 	ldw	r5,-16(fp)
    86d0:	1009883a 	mov	r4,r2
    86d4:	00091b80 	call	91b8 <__mulsi3>
    86d8:	8887c83a 	sub	r3,r17,r2
    86dc:	d0a0010b 	ldhu	r2,-32764(gp)
    86e0:	10bfffcc 	andi	r2,r2,65535
    86e4:	1885d83a 	sra	r2,r3,r2
    86e8:	8080000d 	sth	r2,0(r16)
    86ec:	d0a0f617 	ldw	r2,-31784(gp)
    86f0:	14000084 	addi	r16,r2,2
    86f4:	d0a0030b 	ldhu	r2,-32756(gp)
    86f8:	10bfffcc 	andi	r2,r2,65535
    86fc:	e17ff617 	ldw	r5,-40(fp)
    8700:	1009883a 	mov	r4,r2
    8704:	00091b80 	call	91b8 <__mulsi3>
    8708:	1023883a 	mov	r17,r2
    870c:	d0a0028b 	ldhu	r2,-32758(gp)
    8710:	10bfffcc 	andi	r2,r2,65535
    8714:	e17ff817 	ldw	r5,-32(fp)
    8718:	1009883a 	mov	r4,r2
    871c:	00091b80 	call	91b8 <__mulsi3>
    8720:	88a3883a 	add	r17,r17,r2
    8724:	d0a0020b 	ldhu	r2,-32760(gp)
    8728:	10bfffcc 	andi	r2,r2,65535
    872c:	e17ffa17 	ldw	r5,-24(fp)
    8730:	1009883a 	mov	r4,r2
    8734:	00091b80 	call	91b8 <__mulsi3>
    8738:	88a3883a 	add	r17,r17,r2
    873c:	d0a0018b 	ldhu	r2,-32762(gp)
    8740:	10bfffcc 	andi	r2,r2,65535
    8744:	e17ffc17 	ldw	r5,-16(fp)
    8748:	1009883a 	mov	r4,r2
    874c:	00091b80 	call	91b8 <__mulsi3>
    8750:	8887883a 	add	r3,r17,r2
    8754:	d0a0010b 	ldhu	r2,-32764(gp)
    8758:	10bfffcc 	andi	r2,r2,65535
    875c:	1885d83a 	sra	r2,r3,r2
    8760:	8080000d 	sth	r2,0(r16)
    8764:	d0a0f617 	ldw	r2,-31784(gp)
    8768:	10800404 	addi	r2,r2,16
    876c:	d0a0f615 	stw	r2,-31784(gp)
    8770:	e0bff40b 	ldhu	r2,-48(fp)
    8774:	10bfffc4 	addi	r2,r2,-1
    8778:	e0bff40d 	sth	r2,-48(fp)
    877c:	e0bff40b 	ldhu	r2,-48(fp)
    8780:	103ed11e 	bne	r2,zero,82c8 <_gp+0xffff4d14>
    8784:	d0a0f617 	ldw	r2,-31784(gp)
    8788:	10bfe004 	addi	r2,r2,-128
    878c:	d0a0f615 	stw	r2,-31784(gp)
    8790:	00800204 	movi	r2,8
    8794:	e0bff40d 	sth	r2,-48(fp)
    8798:	00013106 	br	8c60 <DCT+0x9f4>
    879c:	d0a0f617 	ldw	r2,-31784(gp)
    87a0:	1080000b 	ldhu	r2,0(r2)
    87a4:	10ffffcc 	andi	r3,r2,65535
    87a8:	18e0001c 	xori	r3,r3,32768
    87ac:	18e00004 	addi	r3,r3,-32768
    87b0:	d0a0f617 	ldw	r2,-31784(gp)
    87b4:	10801c04 	addi	r2,r2,112
    87b8:	1080000b 	ldhu	r2,0(r2)
    87bc:	10bfffcc 	andi	r2,r2,65535
    87c0:	10a0001c 	xori	r2,r2,32768
    87c4:	10a00004 	addi	r2,r2,-32768
    87c8:	1885883a 	add	r2,r3,r2
    87cc:	e0bff515 	stw	r2,-44(fp)
    87d0:	d0a0f617 	ldw	r2,-31784(gp)
    87d4:	1080000b 	ldhu	r2,0(r2)
    87d8:	10ffffcc 	andi	r3,r2,65535
    87dc:	18e0001c 	xori	r3,r3,32768
    87e0:	18e00004 	addi	r3,r3,-32768
    87e4:	d0a0f617 	ldw	r2,-31784(gp)
    87e8:	10801c04 	addi	r2,r2,112
    87ec:	1080000b 	ldhu	r2,0(r2)
    87f0:	10bfffcc 	andi	r2,r2,65535
    87f4:	10a0001c 	xori	r2,r2,32768
    87f8:	10a00004 	addi	r2,r2,-32768
    87fc:	1885c83a 	sub	r2,r3,r2
    8800:	e0bff615 	stw	r2,-40(fp)
    8804:	d0a0f617 	ldw	r2,-31784(gp)
    8808:	10800404 	addi	r2,r2,16
    880c:	1080000b 	ldhu	r2,0(r2)
    8810:	10ffffcc 	andi	r3,r2,65535
    8814:	18e0001c 	xori	r3,r3,32768
    8818:	18e00004 	addi	r3,r3,-32768
    881c:	d0a0f617 	ldw	r2,-31784(gp)
    8820:	10801804 	addi	r2,r2,96
    8824:	1080000b 	ldhu	r2,0(r2)
    8828:	10bfffcc 	andi	r2,r2,65535
    882c:	10a0001c 	xori	r2,r2,32768
    8830:	10a00004 	addi	r2,r2,-32768
    8834:	1885883a 	add	r2,r3,r2
    8838:	e0bff715 	stw	r2,-36(fp)
    883c:	d0a0f617 	ldw	r2,-31784(gp)
    8840:	10800404 	addi	r2,r2,16
    8844:	1080000b 	ldhu	r2,0(r2)
    8848:	10ffffcc 	andi	r3,r2,65535
    884c:	18e0001c 	xori	r3,r3,32768
    8850:	18e00004 	addi	r3,r3,-32768
    8854:	d0a0f617 	ldw	r2,-31784(gp)
    8858:	10801804 	addi	r2,r2,96
    885c:	1080000b 	ldhu	r2,0(r2)
    8860:	10bfffcc 	andi	r2,r2,65535
    8864:	10a0001c 	xori	r2,r2,32768
    8868:	10a00004 	addi	r2,r2,-32768
    886c:	1885c83a 	sub	r2,r3,r2
    8870:	e0bff815 	stw	r2,-32(fp)
    8874:	d0a0f617 	ldw	r2,-31784(gp)
    8878:	10800804 	addi	r2,r2,32
    887c:	1080000b 	ldhu	r2,0(r2)
    8880:	10ffffcc 	andi	r3,r2,65535
    8884:	18e0001c 	xori	r3,r3,32768
    8888:	18e00004 	addi	r3,r3,-32768
    888c:	d0a0f617 	ldw	r2,-31784(gp)
    8890:	10801404 	addi	r2,r2,80
    8894:	1080000b 	ldhu	r2,0(r2)
    8898:	10bfffcc 	andi	r2,r2,65535
    889c:	10a0001c 	xori	r2,r2,32768
    88a0:	10a00004 	addi	r2,r2,-32768
    88a4:	1885883a 	add	r2,r3,r2
    88a8:	e0bff915 	stw	r2,-28(fp)
    88ac:	d0a0f617 	ldw	r2,-31784(gp)
    88b0:	10800804 	addi	r2,r2,32
    88b4:	1080000b 	ldhu	r2,0(r2)
    88b8:	10ffffcc 	andi	r3,r2,65535
    88bc:	18e0001c 	xori	r3,r3,32768
    88c0:	18e00004 	addi	r3,r3,-32768
    88c4:	d0a0f617 	ldw	r2,-31784(gp)
    88c8:	10801404 	addi	r2,r2,80
    88cc:	1080000b 	ldhu	r2,0(r2)
    88d0:	10bfffcc 	andi	r2,r2,65535
    88d4:	10a0001c 	xori	r2,r2,32768
    88d8:	10a00004 	addi	r2,r2,-32768
    88dc:	1885c83a 	sub	r2,r3,r2
    88e0:	e0bffa15 	stw	r2,-24(fp)
    88e4:	d0a0f617 	ldw	r2,-31784(gp)
    88e8:	10800c04 	addi	r2,r2,48
    88ec:	1080000b 	ldhu	r2,0(r2)
    88f0:	10ffffcc 	andi	r3,r2,65535
    88f4:	18e0001c 	xori	r3,r3,32768
    88f8:	18e00004 	addi	r3,r3,-32768
    88fc:	d0a0f617 	ldw	r2,-31784(gp)
    8900:	10801004 	addi	r2,r2,64
    8904:	1080000b 	ldhu	r2,0(r2)
    8908:	10bfffcc 	andi	r2,r2,65535
    890c:	10a0001c 	xori	r2,r2,32768
    8910:	10a00004 	addi	r2,r2,-32768
    8914:	1885883a 	add	r2,r3,r2
    8918:	e0bffb15 	stw	r2,-20(fp)
    891c:	d0a0f617 	ldw	r2,-31784(gp)
    8920:	10800c04 	addi	r2,r2,48
    8924:	1080000b 	ldhu	r2,0(r2)
    8928:	10ffffcc 	andi	r3,r2,65535
    892c:	18e0001c 	xori	r3,r3,32768
    8930:	18e00004 	addi	r3,r3,-32768
    8934:	d0a0f617 	ldw	r2,-31784(gp)
    8938:	10801004 	addi	r2,r2,64
    893c:	1080000b 	ldhu	r2,0(r2)
    8940:	10bfffcc 	andi	r2,r2,65535
    8944:	10a0001c 	xori	r2,r2,32768
    8948:	10a00004 	addi	r2,r2,-32768
    894c:	1885c83a 	sub	r2,r3,r2
    8950:	e0bffc15 	stw	r2,-16(fp)
    8954:	e0fff517 	ldw	r3,-44(fp)
    8958:	e0bffb17 	ldw	r2,-20(fp)
    895c:	1885883a 	add	r2,r3,r2
    8960:	e0bffd15 	stw	r2,-12(fp)
    8964:	e0fff517 	ldw	r3,-44(fp)
    8968:	e0bffb17 	ldw	r2,-20(fp)
    896c:	1885c83a 	sub	r2,r3,r2
    8970:	e0bff515 	stw	r2,-44(fp)
    8974:	e0fff717 	ldw	r3,-36(fp)
    8978:	e0bff917 	ldw	r2,-28(fp)
    897c:	1885883a 	add	r2,r3,r2
    8980:	e0bffb15 	stw	r2,-20(fp)
    8984:	e0fff717 	ldw	r3,-36(fp)
    8988:	e0bff917 	ldw	r2,-28(fp)
    898c:	1885c83a 	sub	r2,r3,r2
    8990:	e0bff715 	stw	r2,-36(fp)
    8994:	d0a0f617 	ldw	r2,-31784(gp)
    8998:	e13ffd17 	ldw	r4,-12(fp)
    899c:	e0fffb17 	ldw	r3,-20(fp)
    89a0:	20c9883a 	add	r4,r4,r3
    89a4:	d0e0038b 	ldhu	r3,-32754(gp)
    89a8:	18ffffcc 	andi	r3,r3,65535
    89ac:	20c7d83a 	sra	r3,r4,r3
    89b0:	10c0000d 	sth	r3,0(r2)
    89b4:	d0a0f617 	ldw	r2,-31784(gp)
    89b8:	10801004 	addi	r2,r2,64
    89bc:	e13ffd17 	ldw	r4,-12(fp)
    89c0:	e0fffb17 	ldw	r3,-20(fp)
    89c4:	20c9c83a 	sub	r4,r4,r3
    89c8:	d0e0038b 	ldhu	r3,-32754(gp)
    89cc:	18ffffcc 	andi	r3,r3,65535
    89d0:	20c7d83a 	sra	r3,r4,r3
    89d4:	10c0000d 	sth	r3,0(r2)
    89d8:	d0a0f617 	ldw	r2,-31784(gp)
    89dc:	14000804 	addi	r16,r2,32
    89e0:	d0a0000b 	ldhu	r2,-32768(gp)
    89e4:	10bfffcc 	andi	r2,r2,65535
    89e8:	e17ff517 	ldw	r5,-44(fp)
    89ec:	1009883a 	mov	r4,r2
    89f0:	00091b80 	call	91b8 <__mulsi3>
    89f4:	1023883a 	mov	r17,r2
    89f8:	d0a0008b 	ldhu	r2,-32766(gp)
    89fc:	10bfffcc 	andi	r2,r2,65535
    8a00:	e17ff717 	ldw	r5,-36(fp)
    8a04:	1009883a 	mov	r4,r2
    8a08:	00091b80 	call	91b8 <__mulsi3>
    8a0c:	8887883a 	add	r3,r17,r2
    8a10:	d0a0040b 	ldhu	r2,-32752(gp)
    8a14:	10bfffcc 	andi	r2,r2,65535
    8a18:	1885d83a 	sra	r2,r3,r2
    8a1c:	8080000d 	sth	r2,0(r16)
    8a20:	d0a0f617 	ldw	r2,-31784(gp)
    8a24:	14001804 	addi	r16,r2,96
    8a28:	d0a0008b 	ldhu	r2,-32766(gp)
    8a2c:	10bfffcc 	andi	r2,r2,65535
    8a30:	e17ff517 	ldw	r5,-44(fp)
    8a34:	1009883a 	mov	r4,r2
    8a38:	00091b80 	call	91b8 <__mulsi3>
    8a3c:	1023883a 	mov	r17,r2
    8a40:	d0a0000b 	ldhu	r2,-32768(gp)
    8a44:	10bfffcc 	andi	r2,r2,65535
    8a48:	e17ff717 	ldw	r5,-36(fp)
    8a4c:	1009883a 	mov	r4,r2
    8a50:	00091b80 	call	91b8 <__mulsi3>
    8a54:	8887c83a 	sub	r3,r17,r2
    8a58:	d0a0040b 	ldhu	r2,-32752(gp)
    8a5c:	10bfffcc 	andi	r2,r2,65535
    8a60:	1885d83a 	sra	r2,r3,r2
    8a64:	8080000d 	sth	r2,0(r16)
    8a68:	d0a0f617 	ldw	r2,-31784(gp)
    8a6c:	14001c04 	addi	r16,r2,112
    8a70:	d0a0018b 	ldhu	r2,-32762(gp)
    8a74:	10bfffcc 	andi	r2,r2,65535
    8a78:	e17ff617 	ldw	r5,-40(fp)
    8a7c:	1009883a 	mov	r4,r2
    8a80:	00091b80 	call	91b8 <__mulsi3>
    8a84:	1023883a 	mov	r17,r2
    8a88:	d0a0020b 	ldhu	r2,-32760(gp)
    8a8c:	10bfffcc 	andi	r2,r2,65535
    8a90:	e17ff817 	ldw	r5,-32(fp)
    8a94:	1009883a 	mov	r4,r2
    8a98:	00091b80 	call	91b8 <__mulsi3>
    8a9c:	88a3c83a 	sub	r17,r17,r2
    8aa0:	d0a0028b 	ldhu	r2,-32758(gp)
    8aa4:	10bfffcc 	andi	r2,r2,65535
    8aa8:	e17ffa17 	ldw	r5,-24(fp)
    8aac:	1009883a 	mov	r4,r2
    8ab0:	00091b80 	call	91b8 <__mulsi3>
    8ab4:	88a3883a 	add	r17,r17,r2
    8ab8:	d0a0030b 	ldhu	r2,-32756(gp)
    8abc:	10bfffcc 	andi	r2,r2,65535
    8ac0:	e17ffc17 	ldw	r5,-16(fp)
    8ac4:	1009883a 	mov	r4,r2
    8ac8:	00091b80 	call	91b8 <__mulsi3>
    8acc:	8887c83a 	sub	r3,r17,r2
    8ad0:	d0a0040b 	ldhu	r2,-32752(gp)
    8ad4:	10bfffcc 	andi	r2,r2,65535
    8ad8:	1885d83a 	sra	r2,r3,r2
    8adc:	8080000d 	sth	r2,0(r16)
    8ae0:	d0a0f617 	ldw	r2,-31784(gp)
    8ae4:	14001404 	addi	r16,r2,80
    8ae8:	d0a0020b 	ldhu	r2,-32760(gp)
    8aec:	10bfffcc 	andi	r2,r2,65535
    8af0:	e17ff617 	ldw	r5,-40(fp)
    8af4:	1009883a 	mov	r4,r2
    8af8:	00091b80 	call	91b8 <__mulsi3>
    8afc:	1023883a 	mov	r17,r2
    8b00:	d0a0030b 	ldhu	r2,-32756(gp)
    8b04:	10bfffcc 	andi	r2,r2,65535
    8b08:	e17ff817 	ldw	r5,-32(fp)
    8b0c:	1009883a 	mov	r4,r2
    8b10:	00091b80 	call	91b8 <__mulsi3>
    8b14:	88a3c83a 	sub	r17,r17,r2
    8b18:	d0a0018b 	ldhu	r2,-32762(gp)
    8b1c:	10bfffcc 	andi	r2,r2,65535
    8b20:	e17ffa17 	ldw	r5,-24(fp)
    8b24:	1009883a 	mov	r4,r2
    8b28:	00091b80 	call	91b8 <__mulsi3>
    8b2c:	88a3883a 	add	r17,r17,r2
    8b30:	d0a0028b 	ldhu	r2,-32758(gp)
    8b34:	10bfffcc 	andi	r2,r2,65535
    8b38:	e17ffc17 	ldw	r5,-16(fp)
    8b3c:	1009883a 	mov	r4,r2
    8b40:	00091b80 	call	91b8 <__mulsi3>
    8b44:	8887883a 	add	r3,r17,r2
    8b48:	d0a0040b 	ldhu	r2,-32752(gp)
    8b4c:	10bfffcc 	andi	r2,r2,65535
    8b50:	1885d83a 	sra	r2,r3,r2
    8b54:	8080000d 	sth	r2,0(r16)
    8b58:	d0a0f617 	ldw	r2,-31784(gp)
    8b5c:	14000c04 	addi	r16,r2,48
    8b60:	d0a0028b 	ldhu	r2,-32758(gp)
    8b64:	10bfffcc 	andi	r2,r2,65535
    8b68:	e17ff617 	ldw	r5,-40(fp)
    8b6c:	1009883a 	mov	r4,r2
    8b70:	00091b80 	call	91b8 <__mulsi3>
    8b74:	1023883a 	mov	r17,r2
    8b78:	d0a0018b 	ldhu	r2,-32762(gp)
    8b7c:	10bfffcc 	andi	r2,r2,65535
    8b80:	e17ff817 	ldw	r5,-32(fp)
    8b84:	1009883a 	mov	r4,r2
    8b88:	00091b80 	call	91b8 <__mulsi3>
    8b8c:	88a3c83a 	sub	r17,r17,r2
    8b90:	d0a0030b 	ldhu	r2,-32756(gp)
    8b94:	10bfffcc 	andi	r2,r2,65535
    8b98:	e17ffa17 	ldw	r5,-24(fp)
    8b9c:	1009883a 	mov	r4,r2
    8ba0:	00091b80 	call	91b8 <__mulsi3>
    8ba4:	88a3c83a 	sub	r17,r17,r2
    8ba8:	d0a0020b 	ldhu	r2,-32760(gp)
    8bac:	10bfffcc 	andi	r2,r2,65535
    8bb0:	e17ffc17 	ldw	r5,-16(fp)
    8bb4:	1009883a 	mov	r4,r2
    8bb8:	00091b80 	call	91b8 <__mulsi3>
    8bbc:	8887c83a 	sub	r3,r17,r2
    8bc0:	d0a0040b 	ldhu	r2,-32752(gp)
    8bc4:	10bfffcc 	andi	r2,r2,65535
    8bc8:	1885d83a 	sra	r2,r3,r2
    8bcc:	8080000d 	sth	r2,0(r16)
    8bd0:	d0a0f617 	ldw	r2,-31784(gp)
    8bd4:	14000404 	addi	r16,r2,16
    8bd8:	d0a0030b 	ldhu	r2,-32756(gp)
    8bdc:	10bfffcc 	andi	r2,r2,65535
    8be0:	e17ff617 	ldw	r5,-40(fp)
    8be4:	1009883a 	mov	r4,r2
    8be8:	00091b80 	call	91b8 <__mulsi3>
    8bec:	1023883a 	mov	r17,r2
    8bf0:	d0a0028b 	ldhu	r2,-32758(gp)
    8bf4:	10bfffcc 	andi	r2,r2,65535
    8bf8:	e17ff817 	ldw	r5,-32(fp)
    8bfc:	1009883a 	mov	r4,r2
    8c00:	00091b80 	call	91b8 <__mulsi3>
    8c04:	88a3883a 	add	r17,r17,r2
    8c08:	d0a0020b 	ldhu	r2,-32760(gp)
    8c0c:	10bfffcc 	andi	r2,r2,65535
    8c10:	e17ffa17 	ldw	r5,-24(fp)
    8c14:	1009883a 	mov	r4,r2
    8c18:	00091b80 	call	91b8 <__mulsi3>
    8c1c:	88a3883a 	add	r17,r17,r2
    8c20:	d0a0018b 	ldhu	r2,-32762(gp)
    8c24:	10bfffcc 	andi	r2,r2,65535
    8c28:	e17ffc17 	ldw	r5,-16(fp)
    8c2c:	1009883a 	mov	r4,r2
    8c30:	00091b80 	call	91b8 <__mulsi3>
    8c34:	8887883a 	add	r3,r17,r2
    8c38:	d0a0040b 	ldhu	r2,-32752(gp)
    8c3c:	10bfffcc 	andi	r2,r2,65535
    8c40:	1885d83a 	sra	r2,r3,r2
    8c44:	8080000d 	sth	r2,0(r16)
    8c48:	d0a0f617 	ldw	r2,-31784(gp)
    8c4c:	10800084 	addi	r2,r2,2
    8c50:	d0a0f615 	stw	r2,-31784(gp)
    8c54:	e0bff40b 	ldhu	r2,-48(fp)
    8c58:	10bfffc4 	addi	r2,r2,-1
    8c5c:	e0bff40d 	sth	r2,-48(fp)
    8c60:	e0bff40b 	ldhu	r2,-48(fp)
    8c64:	103ecd1e 	bne	r2,zero,879c <_gp+0xffff51e8>
    8c68:	d0a0f617 	ldw	r2,-31784(gp)
    8c6c:	10bffc04 	addi	r2,r2,-16
    8c70:	d0a0f615 	stw	r2,-31784(gp)
    8c74:	e03ff40d 	sth	zero,-48(fp)
    8c78:	00000d06 	br	8cb0 <DCT+0xa44>
    8c7c:	d0e0f617 	ldw	r3,-31784(gp)
    8c80:	e0bff40b 	ldhu	r2,-48(fp)
    8c84:	1085883a 	add	r2,r2,r2
    8c88:	1885883a 	add	r2,r3,r2
    8c8c:	1080000b 	ldhu	r2,0(r2)
    8c90:	10bfffcc 	andi	r2,r2,65535
    8c94:	10a0001c 	xori	r2,r2,32768
    8c98:	10a00004 	addi	r2,r2,-32768
    8c9c:	1009883a 	mov	r4,r2
    8ca0:	0008dbc0 	call	8dbc <SEND>
    8ca4:	e0bff40b 	ldhu	r2,-48(fp)
    8ca8:	10800044 	addi	r2,r2,1
    8cac:	e0bff40d 	sth	r2,-48(fp)
    8cb0:	e0bff40b 	ldhu	r2,-48(fp)
    8cb4:	10801030 	cmpltui	r2,r2,64
    8cb8:	103ff01e 	bne	r2,zero,8c7c <_gp+0xffff56c8>
    8cbc:	0001883a 	nop
    8cc0:	e6fffe04 	addi	sp,fp,-8
    8cc4:	dfc00317 	ldw	ra,12(sp)
    8cc8:	df000217 	ldw	fp,8(sp)
    8ccc:	dc400117 	ldw	r17,4(sp)
    8cd0:	dc000017 	ldw	r16,0(sp)
    8cd4:	dec00404 	addi	sp,sp,16
    8cd8:	f800283a 	ret

00008cdc <main>:
    8cdc:	defffd04 	addi	sp,sp,-12
    8ce0:	dfc00215 	stw	ra,8(sp)
    8ce4:	df000115 	stw	fp,4(sp)
    8ce8:	df000104 	addi	fp,sp,4
    8cec:	01002004 	movi	r4,128
    8cf0:	00091e00 	call	91e0 <malloc>
    8cf4:	d0a0f615 	stw	r2,-31784(gp)
    8cf8:	0008d400 	call	8d40 <init_queues>
    8cfc:	e03fff15 	stw	zero,-4(fp)
    8d00:	00000406 	br	8d14 <main+0x38>
    8d04:	000826c0 	call	826c <DCT>
    8d08:	e0bfff17 	ldw	r2,-4(fp)
    8d0c:	10800044 	addi	r2,r2,1
    8d10:	e0bfff15 	stw	r2,-4(fp)
    8d14:	0008fa00 	call	8fa0 <getIterCount>
    8d18:	1007883a 	mov	r3,r2
    8d1c:	e0bfff17 	ldw	r2,-4(fp)
    8d20:	10fff816 	blt	r2,r3,8d04 <_gp+0xffff5750>
    8d24:	0008d600 	call	8d60 <close_queues>
    8d28:	0005883a 	mov	r2,zero
    8d2c:	e037883a 	mov	sp,fp
    8d30:	dfc00117 	ldw	ra,4(sp)
    8d34:	df000017 	ldw	fp,0(sp)
    8d38:	dec00204 	addi	sp,sp,8
    8d3c:	f800283a 	ret

00008d40 <init_queues>:
    8d40:	deffff04 	addi	sp,sp,-4
    8d44:	df000015 	stw	fp,0(sp)
    8d48:	d839883a 	mov	fp,sp
    8d4c:	0001883a 	nop
    8d50:	e037883a 	mov	sp,fp
    8d54:	df000017 	ldw	fp,0(sp)
    8d58:	dec00104 	addi	sp,sp,4
    8d5c:	f800283a 	ret

00008d60 <close_queues>:
    8d60:	deffff04 	addi	sp,sp,-4
    8d64:	df000015 	stw	fp,0(sp)
    8d68:	d839883a 	mov	fp,sp
    8d6c:	0001883a 	nop
    8d70:	e037883a 	mov	sp,fp
    8d74:	df000017 	ldw	fp,0(sp)
    8d78:	dec00104 	addi	sp,sp,4
    8d7c:	f800283a 	ret

00008d80 <RECV>:
    8d80:	defffe04 	addi	sp,sp,-8
    8d84:	dfc00115 	stw	ra,4(sp)
    8d88:	df000015 	stw	fp,0(sp)
    8d8c:	d839883a 	mov	fp,sp
    8d90:	00800074 	movhi	r2,1
    8d94:	10aca804 	addi	r2,r2,-19808
    8d98:	11000017 	ldw	r4,0(r2)
    8d9c:	11400117 	ldw	r5,4(r2)
    8da0:	11800217 	ldw	r6,8(r2)
    8da4:	00091500 	call	9150 <dequeueINT32>
    8da8:	e037883a 	mov	sp,fp
    8dac:	dfc00117 	ldw	ra,4(sp)
    8db0:	df000017 	ldw	fp,0(sp)
    8db4:	dec00204 	addi	sp,sp,8
    8db8:	f800283a 	ret

00008dbc <SEND>:
    8dbc:	defffd04 	addi	sp,sp,-12
    8dc0:	dfc00215 	stw	ra,8(sp)
    8dc4:	df000115 	stw	fp,4(sp)
    8dc8:	df000104 	addi	fp,sp,4
    8dcc:	e13fff15 	stw	r4,-4(fp)
    8dd0:	00800074 	movhi	r2,1
    8dd4:	10acb104 	addi	r2,r2,-19772
    8dd8:	e1ffff17 	ldw	r7,-4(fp)
    8ddc:	11000017 	ldw	r4,0(r2)
    8de0:	11400117 	ldw	r5,4(r2)
    8de4:	11800217 	ldw	r6,8(r2)
    8de8:	00090e00 	call	90e0 <enqueueINT32>
    8dec:	0001883a 	nop
    8df0:	e037883a 	mov	sp,fp
    8df4:	dfc00117 	ldw	ra,4(sp)
    8df8:	df000017 	ldw	fp,0(sp)
    8dfc:	dec00204 	addi	sp,sp,8
    8e00:	f800283a 	ret

00008e04 <setProgStatus>:
    8e04:	defffe04 	addi	sp,sp,-8
    8e08:	df000115 	stw	fp,4(sp)
    8e0c:	df000104 	addi	fp,sp,4
    8e10:	e13fff15 	stw	r4,-4(fp)
    8e14:	00800074 	movhi	r2,1
    8e18:	e0ffff17 	ldw	r3,-4(fp)
    8e1c:	10c00035 	stwio	r3,0(r2)
    8e20:	0001883a 	nop
    8e24:	e037883a 	mov	sp,fp
    8e28:	df000017 	ldw	fp,0(sp)
    8e2c:	dec00104 	addi	sp,sp,4
    8e30:	f800283a 	ret

00008e34 <getProgStatus>:
    8e34:	deffff04 	addi	sp,sp,-4
    8e38:	df000015 	stw	fp,0(sp)
    8e3c:	d839883a 	mov	fp,sp
    8e40:	00800074 	movhi	r2,1
    8e44:	10800037 	ldwio	r2,0(r2)
    8e48:	e037883a 	mov	sp,fp
    8e4c:	df000017 	ldw	fp,0(sp)
    8e50:	dec00104 	addi	sp,sp,4
    8e54:	f800283a 	ret

00008e58 <setFileName>:
    8e58:	defffc04 	addi	sp,sp,-16
    8e5c:	df000315 	stw	fp,12(sp)
    8e60:	df000304 	addi	fp,sp,12
    8e64:	e13ffe15 	stw	r4,-8(fp)
    8e68:	e17fff15 	stw	r5,-4(fp)
    8e6c:	00800074 	movhi	r2,1
    8e70:	10800604 	addi	r2,r2,24
    8e74:	e0fffe17 	ldw	r3,-8(fp)
    8e78:	10c00035 	stwio	r3,0(r2)
    8e7c:	e03ffd15 	stw	zero,-12(fp)
    8e80:	00001006 	br	8ec4 <setFileName+0x6c>
    8e84:	e0bffd17 	ldw	r2,-12(fp)
    8e88:	10800704 	addi	r2,r2,28
    8e8c:	1007883a 	mov	r3,r2
    8e90:	00800074 	movhi	r2,1
    8e94:	1885883a 	add	r2,r3,r2
    8e98:	e0fffd17 	ldw	r3,-12(fp)
    8e9c:	e13fff17 	ldw	r4,-4(fp)
    8ea0:	20c7883a 	add	r3,r4,r3
    8ea4:	18c00003 	ldbu	r3,0(r3)
    8ea8:	18c03fcc 	andi	r3,r3,255
    8eac:	18c0201c 	xori	r3,r3,128
    8eb0:	18ffe004 	addi	r3,r3,-128
    8eb4:	10c00025 	stbio	r3,0(r2)
    8eb8:	e0bffd17 	ldw	r2,-12(fp)
    8ebc:	10800044 	addi	r2,r2,1
    8ec0:	e0bffd15 	stw	r2,-12(fp)
    8ec4:	e0bffd17 	ldw	r2,-12(fp)
    8ec8:	e0fffe17 	ldw	r3,-8(fp)
    8ecc:	18bfed0e 	bge	r3,r2,8e84 <_gp+0xffff58d0>
    8ed0:	0001883a 	nop
    8ed4:	e037883a 	mov	sp,fp
    8ed8:	df000017 	ldw	fp,0(sp)
    8edc:	dec00104 	addi	sp,sp,4
    8ee0:	f800283a 	ret

00008ee4 <setMemInfo>:
    8ee4:	defffb04 	addi	sp,sp,-20
    8ee8:	df000415 	stw	fp,16(sp)
    8eec:	df000404 	addi	fp,sp,16
    8ef0:	e13ffc15 	stw	r4,-16(fp)
    8ef4:	e17ffd15 	stw	r5,-12(fp)
    8ef8:	e1bffe15 	stw	r6,-8(fp)
    8efc:	e1ffff15 	stw	r7,-4(fp)
    8f00:	00800074 	movhi	r2,1
    8f04:	10800104 	addi	r2,r2,4
    8f08:	e0fffc17 	ldw	r3,-16(fp)
    8f0c:	10c00035 	stwio	r3,0(r2)
    8f10:	00800074 	movhi	r2,1
    8f14:	10800204 	addi	r2,r2,8
    8f18:	e0fffd17 	ldw	r3,-12(fp)
    8f1c:	10c00035 	stwio	r3,0(r2)
    8f20:	00800074 	movhi	r2,1
    8f24:	10800304 	addi	r2,r2,12
    8f28:	e0fffe17 	ldw	r3,-8(fp)
    8f2c:	10c00035 	stwio	r3,0(r2)
    8f30:	00800074 	movhi	r2,1
    8f34:	10800404 	addi	r2,r2,16
    8f38:	e0ffff17 	ldw	r3,-4(fp)
    8f3c:	10c00035 	stwio	r3,0(r2)
    8f40:	00800074 	movhi	r2,1
    8f44:	10800504 	addi	r2,r2,20
    8f48:	e0c00117 	ldw	r3,4(fp)
    8f4c:	10c00035 	stwio	r3,0(r2)
    8f50:	0001883a 	nop
    8f54:	e037883a 	mov	sp,fp
    8f58:	df000017 	ldw	fp,0(sp)
    8f5c:	dec00104 	addi	sp,sp,4
    8f60:	f800283a 	ret

00008f64 <getFileName>:
    8f64:	defffd04 	addi	sp,sp,-12
    8f68:	dfc00215 	stw	ra,8(sp)
    8f6c:	df000115 	stw	fp,4(sp)
    8f70:	df000104 	addi	fp,sp,4
    8f74:	e13fff15 	stw	r4,-4(fp)
    8f78:	0001883a 	nop
    8f7c:	0008e340 	call	8e34 <getProgStatus>
    8f80:	10800058 	cmpnei	r2,r2,1
    8f84:	103ffd1e 	bne	r2,zero,8f7c <_gp+0xffff59c8>
    8f88:	0005883a 	mov	r2,zero
    8f8c:	e037883a 	mov	sp,fp
    8f90:	dfc00117 	ldw	ra,4(sp)
    8f94:	df000017 	ldw	fp,0(sp)
    8f98:	dec00204 	addi	sp,sp,8
    8f9c:	f800283a 	ret

00008fa0 <getIterCount>:
    8fa0:	defffe04 	addi	sp,sp,-8
    8fa4:	dfc00115 	stw	ra,4(sp)
    8fa8:	df000015 	stw	fp,0(sp)
    8fac:	d839883a 	mov	fp,sp
    8fb0:	0001883a 	nop
    8fb4:	0008e340 	call	8e34 <getProgStatus>
    8fb8:	10800058 	cmpnei	r2,r2,1
    8fbc:	103ffd1e 	bne	r2,zero,8fb4 <_gp+0xffff5a00>
    8fc0:	00800074 	movhi	r2,1
    8fc4:	10800104 	addi	r2,r2,4
    8fc8:	10800037 	ldwio	r2,0(r2)
    8fcc:	e037883a 	mov	sp,fp
    8fd0:	dfc00117 	ldw	ra,4(sp)
    8fd4:	df000017 	ldw	fp,0(sp)
    8fd8:	dec00204 	addi	sp,sp,8
    8fdc:	f800283a 	ret

00008fe0 <getWidth>:
    8fe0:	defffe04 	addi	sp,sp,-8
    8fe4:	dfc00115 	stw	ra,4(sp)
    8fe8:	df000015 	stw	fp,0(sp)
    8fec:	d839883a 	mov	fp,sp
    8ff0:	0001883a 	nop
    8ff4:	0008e340 	call	8e34 <getProgStatus>
    8ff8:	10800058 	cmpnei	r2,r2,1
    8ffc:	103ffd1e 	bne	r2,zero,8ff4 <_gp+0xffff5a40>
    9000:	00800074 	movhi	r2,1
    9004:	10800204 	addi	r2,r2,8
    9008:	10800037 	ldwio	r2,0(r2)
    900c:	e037883a 	mov	sp,fp
    9010:	dfc00117 	ldw	ra,4(sp)
    9014:	df000017 	ldw	fp,0(sp)
    9018:	dec00204 	addi	sp,sp,8
    901c:	f800283a 	ret

00009020 <getHeight>:
    9020:	defffe04 	addi	sp,sp,-8
    9024:	dfc00115 	stw	ra,4(sp)
    9028:	df000015 	stw	fp,0(sp)
    902c:	d839883a 	mov	fp,sp
    9030:	0001883a 	nop
    9034:	0008e340 	call	8e34 <getProgStatus>
    9038:	10800058 	cmpnei	r2,r2,1
    903c:	103ffd1e 	bne	r2,zero,9034 <_gp+0xffff5a80>
    9040:	00800074 	movhi	r2,1
    9044:	10800304 	addi	r2,r2,12
    9048:	10800037 	ldwio	r2,0(r2)
    904c:	e037883a 	mov	sp,fp
    9050:	dfc00117 	ldw	ra,4(sp)
    9054:	df000017 	ldw	fp,0(sp)
    9058:	dec00204 	addi	sp,sp,8
    905c:	f800283a 	ret

00009060 <getQualityFactor>:
    9060:	defffe04 	addi	sp,sp,-8
    9064:	dfc00115 	stw	ra,4(sp)
    9068:	df000015 	stw	fp,0(sp)
    906c:	d839883a 	mov	fp,sp
    9070:	0001883a 	nop
    9074:	0008e340 	call	8e34 <getProgStatus>
    9078:	10800058 	cmpnei	r2,r2,1
    907c:	103ffd1e 	bne	r2,zero,9074 <_gp+0xffff5ac0>
    9080:	00800074 	movhi	r2,1
    9084:	10800404 	addi	r2,r2,16
    9088:	10800037 	ldwio	r2,0(r2)
    908c:	e037883a 	mov	sp,fp
    9090:	dfc00117 	ldw	ra,4(sp)
    9094:	df000017 	ldw	fp,0(sp)
    9098:	dec00204 	addi	sp,sp,8
    909c:	f800283a 	ret

000090a0 <getImageFormat>:
    90a0:	defffe04 	addi	sp,sp,-8
    90a4:	dfc00115 	stw	ra,4(sp)
    90a8:	df000015 	stw	fp,0(sp)
    90ac:	d839883a 	mov	fp,sp
    90b0:	0001883a 	nop
    90b4:	0008e340 	call	8e34 <getProgStatus>
    90b8:	10800058 	cmpnei	r2,r2,1
    90bc:	103ffd1e 	bne	r2,zero,90b4 <_gp+0xffff5b00>
    90c0:	00800074 	movhi	r2,1
    90c4:	10800504 	addi	r2,r2,20
    90c8:	10800037 	ldwio	r2,0(r2)
    90cc:	e037883a 	mov	sp,fp
    90d0:	dfc00117 	ldw	ra,4(sp)
    90d4:	df000017 	ldw	fp,0(sp)
    90d8:	dec00204 	addi	sp,sp,8
    90dc:	f800283a 	ret

000090e0 <enqueueINT32>:
    90e0:	defffa04 	addi	sp,sp,-24
    90e4:	dfc00515 	stw	ra,20(sp)
    90e8:	df000415 	stw	fp,16(sp)
    90ec:	df000404 	addi	fp,sp,16
    90f0:	e13ffc15 	stw	r4,-16(fp)
    90f4:	e17ffd15 	stw	r5,-12(fp)
    90f8:	e1bffe15 	stw	r6,-8(fp)
    90fc:	e1ffff15 	stw	r7,-4(fp)
    9100:	0001883a 	nop
    9104:	e0bffe17 	ldw	r2,-8(fp)
    9108:	01400044 	movi	r5,1
    910c:	1009883a 	mov	r4,r2
    9110:	00098040 	call	9804 <altera_avalon_fifo_read_status>
    9114:	103ffb1e 	bne	r2,zero,9104 <_gp+0xffff5b50>
    9118:	e0bffc17 	ldw	r2,-16(fp)
    911c:	1007883a 	mov	r3,r2
    9120:	e0bffe17 	ldw	r2,-8(fp)
    9124:	1009883a 	mov	r4,r2
    9128:	e0bfff17 	ldw	r2,-4(fp)
    912c:	100d883a 	mov	r6,r2
    9130:	200b883a 	mov	r5,r4
    9134:	1809883a 	mov	r4,r3
    9138:	0009aac0 	call	9aac <altera_avalon_fifo_write_fifo>
    913c:	e037883a 	mov	sp,fp
    9140:	dfc00117 	ldw	ra,4(sp)
    9144:	df000017 	ldw	fp,0(sp)
    9148:	dec00204 	addi	sp,sp,8
    914c:	f800283a 	ret

00009150 <dequeueINT32>:
    9150:	defffa04 	addi	sp,sp,-24
    9154:	dfc00515 	stw	ra,20(sp)
    9158:	df000415 	stw	fp,16(sp)
    915c:	df000404 	addi	fp,sp,16
    9160:	e13ffd15 	stw	r4,-12(fp)
    9164:	e17ffe15 	stw	r5,-8(fp)
    9168:	e1bfff15 	stw	r6,-4(fp)
    916c:	0001883a 	nop
    9170:	e0bfff17 	ldw	r2,-4(fp)
    9174:	01400084 	movi	r5,2
    9178:	1009883a 	mov	r4,r2
    917c:	00098040 	call	9804 <altera_avalon_fifo_read_status>
    9180:	103ffb1e 	bne	r2,zero,9170 <_gp+0xffff5bbc>
    9184:	e0bffe17 	ldw	r2,-8(fp)
    9188:	1007883a 	mov	r3,r2
    918c:	e0bfff17 	ldw	r2,-4(fp)
    9190:	100b883a 	mov	r5,r2
    9194:	1809883a 	mov	r4,r3
    9198:	0009b700 	call	9b70 <altera_avalon_fifo_read_fifo>
    919c:	e0bffc15 	stw	r2,-16(fp)
    91a0:	e0bffc17 	ldw	r2,-16(fp)
    91a4:	e037883a 	mov	sp,fp
    91a8:	dfc00117 	ldw	ra,4(sp)
    91ac:	df000017 	ldw	fp,0(sp)
    91b0:	dec00204 	addi	sp,sp,8
    91b4:	f800283a 	ret

000091b8 <__mulsi3>:
    91b8:	0005883a 	mov	r2,zero
    91bc:	20000726 	beq	r4,zero,91dc <__mulsi3+0x24>
    91c0:	20c0004c 	andi	r3,r4,1
    91c4:	2008d07a 	srli	r4,r4,1
    91c8:	18000126 	beq	r3,zero,91d0 <__mulsi3+0x18>
    91cc:	1145883a 	add	r2,r2,r5
    91d0:	294b883a 	add	r5,r5,r5
    91d4:	203ffa1e 	bne	r4,zero,91c0 <_gp+0xffff5c0c>
    91d8:	f800283a 	ret
    91dc:	f800283a 	ret

000091e0 <malloc>:
    91e0:	00800074 	movhi	r2,1
    91e4:	10ad7304 	addi	r2,r2,-18996
    91e8:	200b883a 	mov	r5,r4
    91ec:	11000017 	ldw	r4,0(r2)
    91f0:	00092ec1 	jmpi	92ec <_malloc_r>

000091f4 <free>:
    91f4:	00800074 	movhi	r2,1
    91f8:	10ad7304 	addi	r2,r2,-18996
    91fc:	200b883a 	mov	r5,r4
    9200:	11000017 	ldw	r4,0(r2)
    9204:	00092081 	jmpi	9208 <_free_r>

00009208 <_free_r>:
    9208:	28003726 	beq	r5,zero,92e8 <_free_r+0xe0>
    920c:	28ffff17 	ldw	r3,-4(r5)
    9210:	28bfff04 	addi	r2,r5,-4
    9214:	1800010e 	bge	r3,zero,921c <_free_r+0x14>
    9218:	10c5883a 	add	r2,r2,r3
    921c:	01400074 	movhi	r5,1
    9220:	296e6504 	addi	r5,r5,-18028
    9224:	28c00017 	ldw	r3,0(r5)
    9228:	280d883a 	mov	r6,r5
    922c:	1800031e 	bne	r3,zero,923c <_free_r+0x34>
    9230:	10000115 	stw	zero,4(r2)
    9234:	28800015 	stw	r2,0(r5)
    9238:	f800283a 	ret
    923c:	10c00c2e 	bgeu	r2,r3,9270 <_free_r+0x68>
    9240:	11000017 	ldw	r4,0(r2)
    9244:	110b883a 	add	r5,r2,r4
    9248:	1940041e 	bne	r3,r5,925c <_free_r+0x54>
    924c:	19400017 	ldw	r5,0(r3)
    9250:	18c00117 	ldw	r3,4(r3)
    9254:	2909883a 	add	r4,r5,r4
    9258:	11000015 	stw	r4,0(r2)
    925c:	10c00115 	stw	r3,4(r2)
    9260:	30800015 	stw	r2,0(r6)
    9264:	f800283a 	ret
    9268:	11400336 	bltu	r2,r5,9278 <_free_r+0x70>
    926c:	2807883a 	mov	r3,r5
    9270:	19400117 	ldw	r5,4(r3)
    9274:	283ffc1e 	bne	r5,zero,9268 <_gp+0xffff5cb4>
    9278:	19c00017 	ldw	r7,0(r3)
    927c:	19cd883a 	add	r6,r3,r7
    9280:	30800a1e 	bne	r6,r2,92ac <_free_r+0xa4>
    9284:	10800017 	ldw	r2,0(r2)
    9288:	3885883a 	add	r2,r7,r2
    928c:	18800015 	stw	r2,0(r3)
    9290:	1889883a 	add	r4,r3,r2
    9294:	2900141e 	bne	r5,r4,92e8 <_free_r+0xe0>
    9298:	29000017 	ldw	r4,0(r5)
    929c:	2085883a 	add	r2,r4,r2
    92a0:	18800015 	stw	r2,0(r3)
    92a4:	28800117 	ldw	r2,4(r5)
    92a8:	00000e06 	br	92e4 <_free_r+0xdc>
    92ac:	1180032e 	bgeu	r2,r6,92bc <_free_r+0xb4>
    92b0:	00800304 	movi	r2,12
    92b4:	20800015 	stw	r2,0(r4)
    92b8:	f800283a 	ret
    92bc:	11000017 	ldw	r4,0(r2)
    92c0:	110d883a 	add	r6,r2,r4
    92c4:	2980061e 	bne	r5,r6,92e0 <_free_r+0xd8>
    92c8:	29800017 	ldw	r6,0(r5)
    92cc:	3109883a 	add	r4,r6,r4
    92d0:	11000015 	stw	r4,0(r2)
    92d4:	29000117 	ldw	r4,4(r5)
    92d8:	11000115 	stw	r4,4(r2)
    92dc:	00000106 	br	92e4 <_free_r+0xdc>
    92e0:	11400115 	stw	r5,4(r2)
    92e4:	18800115 	stw	r2,4(r3)
    92e8:	f800283a 	ret

000092ec <_malloc_r>:
    92ec:	defffb04 	addi	sp,sp,-20
    92f0:	00bfff04 	movi	r2,-4
    92f4:	dc400115 	stw	r17,4(sp)
    92f8:	2c4000c4 	addi	r17,r5,3
    92fc:	88a2703a 	and	r17,r17,r2
    9300:	dc800215 	stw	r18,8(sp)
    9304:	dfc00415 	stw	ra,16(sp)
    9308:	dcc00315 	stw	r19,12(sp)
    930c:	dc000015 	stw	r16,0(sp)
    9310:	8c400204 	addi	r17,r17,8
    9314:	00800304 	movi	r2,12
    9318:	2025883a 	mov	r18,r4
    931c:	8880022e 	bgeu	r17,r2,9328 <_malloc_r+0x3c>
    9320:	1023883a 	mov	r17,r2
    9324:	00000506 	br	933c <_malloc_r+0x50>
    9328:	8800040e 	bge	r17,zero,933c <_malloc_r+0x50>
    932c:	00800304 	movi	r2,12
    9330:	90800015 	stw	r2,0(r18)
    9334:	0005883a 	mov	r2,zero
    9338:	00003b06 	br	9428 <_malloc_r+0x13c>
    933c:	897ffb36 	bltu	r17,r5,932c <_gp+0xffff5d78>
    9340:	00800074 	movhi	r2,1
    9344:	10ae6504 	addi	r2,r2,-18028
    9348:	10c00017 	ldw	r3,0(r2)
    934c:	1009883a 	mov	r4,r2
    9350:	1821883a 	mov	r16,r3
    9354:	80000926 	beq	r16,zero,937c <_malloc_r+0x90>
    9358:	80800017 	ldw	r2,0(r16)
    935c:	1445c83a 	sub	r2,r2,r17
    9360:	10001516 	blt	r2,zero,93b8 <_malloc_r+0xcc>
    9364:	014002c4 	movi	r5,11
    9368:	28800d2e 	bgeu	r5,r2,93a0 <_malloc_r+0xb4>
    936c:	80800015 	stw	r2,0(r16)
    9370:	80a1883a 	add	r16,r16,r2
    9374:	84400015 	stw	r17,0(r16)
    9378:	8000221e 	bne	r16,zero,9404 <_malloc_r+0x118>
    937c:	04000074 	movhi	r16,1
    9380:	842e6404 	addi	r16,r16,-18032
    9384:	80800017 	ldw	r2,0(r16)
    9388:	10000e1e 	bne	r2,zero,93c4 <_malloc_r+0xd8>
    938c:	000b883a 	mov	r5,zero
    9390:	9009883a 	mov	r4,r18
    9394:	00094440 	call	9444 <_sbrk_r>
    9398:	80800015 	stw	r2,0(r16)
    939c:	00000906 	br	93c4 <_malloc_r+0xd8>
    93a0:	80800117 	ldw	r2,4(r16)
    93a4:	1c00021e 	bne	r3,r16,93b0 <_malloc_r+0xc4>
    93a8:	20800015 	stw	r2,0(r4)
    93ac:	00001506 	br	9404 <_malloc_r+0x118>
    93b0:	18800115 	stw	r2,4(r3)
    93b4:	00001306 	br	9404 <_malloc_r+0x118>
    93b8:	8007883a 	mov	r3,r16
    93bc:	84000117 	ldw	r16,4(r16)
    93c0:	003fe406 	br	9354 <_gp+0xffff5da0>
    93c4:	880b883a 	mov	r5,r17
    93c8:	9009883a 	mov	r4,r18
    93cc:	00094440 	call	9444 <_sbrk_r>
    93d0:	04ffffc4 	movi	r19,-1
    93d4:	14ffd526 	beq	r2,r19,932c <_gp+0xffff5d78>
    93d8:	140000c4 	addi	r16,r2,3
    93dc:	00ffff04 	movi	r3,-4
    93e0:	80e0703a 	and	r16,r16,r3
    93e4:	1400021e 	bne	r2,r16,93f0 <_malloc_r+0x104>
    93e8:	84400015 	stw	r17,0(r16)
    93ec:	00000506 	br	9404 <_malloc_r+0x118>
    93f0:	808bc83a 	sub	r5,r16,r2
    93f4:	9009883a 	mov	r4,r18
    93f8:	00094440 	call	9444 <_sbrk_r>
    93fc:	14fffa1e 	bne	r2,r19,93e8 <_gp+0xffff5e34>
    9400:	003fca06 	br	932c <_gp+0xffff5d78>
    9404:	810002c4 	addi	r4,r16,11
    9408:	00bffe04 	movi	r2,-8
    940c:	80c00104 	addi	r3,r16,4
    9410:	2084703a 	and	r2,r4,r2
    9414:	10c7c83a 	sub	r3,r2,r3
    9418:	18000326 	beq	r3,zero,9428 <_malloc_r+0x13c>
    941c:	80e1883a 	add	r16,r16,r3
    9420:	00c7c83a 	sub	r3,zero,r3
    9424:	80c00015 	stw	r3,0(r16)
    9428:	dfc00417 	ldw	ra,16(sp)
    942c:	dcc00317 	ldw	r19,12(sp)
    9430:	dc800217 	ldw	r18,8(sp)
    9434:	dc400117 	ldw	r17,4(sp)
    9438:	dc000017 	ldw	r16,0(sp)
    943c:	dec00504 	addi	sp,sp,20
    9440:	f800283a 	ret

00009444 <_sbrk_r>:
    9444:	defffd04 	addi	sp,sp,-12
    9448:	dc000015 	stw	r16,0(sp)
    944c:	04000074 	movhi	r16,1
    9450:	dc400115 	stw	r17,4(sp)
    9454:	842e6604 	addi	r16,r16,-18024
    9458:	2023883a 	mov	r17,r4
    945c:	2809883a 	mov	r4,r5
    9460:	dfc00215 	stw	ra,8(sp)
    9464:	80000015 	stw	zero,0(r16)
    9468:	00095fc0 	call	95fc <sbrk>
    946c:	00ffffc4 	movi	r3,-1
    9470:	10c0031e 	bne	r2,r3,9480 <_sbrk_r+0x3c>
    9474:	80c00017 	ldw	r3,0(r16)
    9478:	18000126 	beq	r3,zero,9480 <_sbrk_r+0x3c>
    947c:	88c00015 	stw	r3,0(r17)
    9480:	dfc00217 	ldw	ra,8(sp)
    9484:	dc400117 	ldw	r17,4(sp)
    9488:	dc000017 	ldw	r16,0(sp)
    948c:	dec00304 	addi	sp,sp,12
    9490:	f800283a 	ret

00009494 <alt_load_section>:
    9494:	defffc04 	addi	sp,sp,-16
    9498:	df000315 	stw	fp,12(sp)
    949c:	df000304 	addi	fp,sp,12
    94a0:	e13ffd15 	stw	r4,-12(fp)
    94a4:	e17ffe15 	stw	r5,-8(fp)
    94a8:	e1bfff15 	stw	r6,-4(fp)
    94ac:	e0fffe17 	ldw	r3,-8(fp)
    94b0:	e0bffd17 	ldw	r2,-12(fp)
    94b4:	18800c26 	beq	r3,r2,94e8 <alt_load_section+0x54>
    94b8:	00000806 	br	94dc <alt_load_section+0x48>
    94bc:	e0bffe17 	ldw	r2,-8(fp)
    94c0:	10c00104 	addi	r3,r2,4
    94c4:	e0fffe15 	stw	r3,-8(fp)
    94c8:	e0fffd17 	ldw	r3,-12(fp)
    94cc:	19000104 	addi	r4,r3,4
    94d0:	e13ffd15 	stw	r4,-12(fp)
    94d4:	18c00017 	ldw	r3,0(r3)
    94d8:	10c00015 	stw	r3,0(r2)
    94dc:	e0fffe17 	ldw	r3,-8(fp)
    94e0:	e0bfff17 	ldw	r2,-4(fp)
    94e4:	18bff51e 	bne	r3,r2,94bc <_gp+0xffff5f08>
    94e8:	0001883a 	nop
    94ec:	e037883a 	mov	sp,fp
    94f0:	df000017 	ldw	fp,0(sp)
    94f4:	dec00104 	addi	sp,sp,4
    94f8:	f800283a 	ret

000094fc <alt_load>:
    94fc:	defffe04 	addi	sp,sp,-8
    9500:	dfc00115 	stw	ra,4(sp)
    9504:	df000015 	stw	fp,0(sp)
    9508:	d839883a 	mov	fp,sp
    950c:	01800074 	movhi	r6,1
    9510:	31ad7e04 	addi	r6,r6,-18952
    9514:	01400074 	movhi	r5,1
    9518:	296c9904 	addi	r5,r5,-19868
    951c:	01000074 	movhi	r4,1
    9520:	212d7e04 	addi	r4,r4,-18952
    9524:	00094940 	call	9494 <alt_load_section>
    9528:	01800074 	movhi	r6,1
    952c:	31a08c04 	addi	r6,r6,-32208
    9530:	01400074 	movhi	r5,1
    9534:	29600804 	addi	r5,r5,-32736
    9538:	01000074 	movhi	r4,1
    953c:	21200804 	addi	r4,r4,-32736
    9540:	00094940 	call	9494 <alt_load_section>
    9544:	01800074 	movhi	r6,1
    9548:	31ac9904 	addi	r6,r6,-19868
    954c:	01400074 	movhi	r5,1
    9550:	296c8a04 	addi	r5,r5,-19928
    9554:	01000074 	movhi	r4,1
    9558:	212c8a04 	addi	r4,r4,-19928
    955c:	00094940 	call	9494 <alt_load_section>
    9560:	000a0b80 	call	a0b8 <alt_dcache_flush_all>
    9564:	000a2a40 	call	a2a4 <alt_icache_flush_all>
    9568:	0001883a 	nop
    956c:	e037883a 	mov	sp,fp
    9570:	dfc00117 	ldw	ra,4(sp)
    9574:	df000017 	ldw	fp,0(sp)
    9578:	dec00204 	addi	sp,sp,8
    957c:	f800283a 	ret

00009580 <alt_main>:
    9580:	defffd04 	addi	sp,sp,-12
    9584:	dfc00215 	stw	ra,8(sp)
    9588:	df000115 	stw	fp,4(sp)
    958c:	df000104 	addi	fp,sp,4
    9590:	0009883a 	mov	r4,zero
    9594:	00096e00 	call	96e0 <alt_irq_init>
    9598:	0001883a 	nop
    959c:	00097180 	call	9718 <alt_sys_init>
    95a0:	01800074 	movhi	r6,1
    95a4:	31ac8a04 	addi	r6,r6,-19928
    95a8:	01400074 	movhi	r5,1
    95ac:	296c8a04 	addi	r5,r5,-19928
    95b0:	01000074 	movhi	r4,1
    95b4:	212c8a04 	addi	r4,r4,-19928
    95b8:	000a6480 	call	a648 <alt_io_redirect>
    95bc:	000a1e40 	call	a1e4 <_do_ctors>
    95c0:	01000074 	movhi	r4,1
    95c4:	21289104 	addi	r4,r4,-23996
    95c8:	000ae8c0 	call	ae8c <atexit>
    95cc:	d0a0fa17 	ldw	r2,-31768(gp)
    95d0:	d0e0fb17 	ldw	r3,-31764(gp)
    95d4:	d120fc17 	ldw	r4,-31760(gp)
    95d8:	200d883a 	mov	r6,r4
    95dc:	180b883a 	mov	r5,r3
    95e0:	1009883a 	mov	r4,r2
    95e4:	0008cdc0 	call	8cdc <main>
    95e8:	e0bfff15 	stw	r2,-4(fp)
    95ec:	01000044 	movi	r4,1
    95f0:	0009fe00 	call	9fe0 <close>
    95f4:	e13fff17 	ldw	r4,-4(fp)
    95f8:	000aea00 	call	aea0 <exit>

000095fc <sbrk>:
    95fc:	defff904 	addi	sp,sp,-28
    9600:	df000615 	stw	fp,24(sp)
    9604:	df000604 	addi	fp,sp,24
    9608:	e13fff15 	stw	r4,-4(fp)
    960c:	0005303a 	rdctl	r2,status
    9610:	e0bffe15 	stw	r2,-8(fp)
    9614:	e0fffe17 	ldw	r3,-8(fp)
    9618:	00bfff84 	movi	r2,-2
    961c:	1884703a 	and	r2,r3,r2
    9620:	1001703a 	wrctl	status,r2
    9624:	e0bffe17 	ldw	r2,-8(fp)
    9628:	e0bffb15 	stw	r2,-20(fp)
    962c:	d0a00717 	ldw	r2,-32740(gp)
    9630:	10c000c4 	addi	r3,r2,3
    9634:	00bfff04 	movi	r2,-4
    9638:	1884703a 	and	r2,r3,r2
    963c:	d0a00715 	stw	r2,-32740(gp)
    9640:	d0e00717 	ldw	r3,-32740(gp)
    9644:	e0bfff17 	ldw	r2,-4(fp)
    9648:	1887883a 	add	r3,r3,r2
    964c:	00800074 	movhi	r2,1
    9650:	10b40004 	addi	r2,r2,-12288
    9654:	10c0062e 	bgeu	r2,r3,9670 <sbrk+0x74>
    9658:	e0bffb17 	ldw	r2,-20(fp)
    965c:	e0bffa15 	stw	r2,-24(fp)
    9660:	e0bffa17 	ldw	r2,-24(fp)
    9664:	1001703a 	wrctl	status,r2
    9668:	00bfffc4 	movi	r2,-1
    966c:	00000b06 	br	969c <sbrk+0xa0>
    9670:	d0a00717 	ldw	r2,-32740(gp)
    9674:	e0bffd15 	stw	r2,-12(fp)
    9678:	d0e00717 	ldw	r3,-32740(gp)
    967c:	e0bfff17 	ldw	r2,-4(fp)
    9680:	1885883a 	add	r2,r3,r2
    9684:	d0a00715 	stw	r2,-32740(gp)
    9688:	e0bffb17 	ldw	r2,-20(fp)
    968c:	e0bffc15 	stw	r2,-16(fp)
    9690:	e0bffc17 	ldw	r2,-16(fp)
    9694:	1001703a 	wrctl	status,r2
    9698:	e0bffd17 	ldw	r2,-12(fp)
    969c:	e037883a 	mov	sp,fp
    96a0:	df000017 	ldw	fp,0(sp)
    96a4:	dec00104 	addi	sp,sp,4
    96a8:	f800283a 	ret

000096ac <alt_dev_reg>:
    96ac:	defffd04 	addi	sp,sp,-12
    96b0:	dfc00215 	stw	ra,8(sp)
    96b4:	df000115 	stw	fp,4(sp)
    96b8:	df000104 	addi	fp,sp,4
    96bc:	e13fff15 	stw	r4,-4(fp)
    96c0:	d1600a04 	addi	r5,gp,-32728
    96c4:	e13fff17 	ldw	r4,-4(fp)
    96c8:	000a1400 	call	a140 <alt_dev_llist_insert>
    96cc:	e037883a 	mov	sp,fp
    96d0:	dfc00117 	ldw	ra,4(sp)
    96d4:	df000017 	ldw	fp,0(sp)
    96d8:	dec00204 	addi	sp,sp,8
    96dc:	f800283a 	ret

000096e0 <alt_irq_init>:
    96e0:	defffd04 	addi	sp,sp,-12
    96e4:	dfc00215 	stw	ra,8(sp)
    96e8:	df000115 	stw	fp,4(sp)
    96ec:	df000104 	addi	fp,sp,4
    96f0:	e13fff15 	stw	r4,-4(fp)
    96f4:	000ab700 	call	ab70 <altera_nios2_gen2_irq_init>
    96f8:	00800044 	movi	r2,1
    96fc:	1001703a 	wrctl	status,r2
    9700:	0001883a 	nop
    9704:	e037883a 	mov	sp,fp
    9708:	dfc00117 	ldw	ra,4(sp)
    970c:	df000017 	ldw	fp,0(sp)
    9710:	dec00204 	addi	sp,sp,8
    9714:	f800283a 	ret

00009718 <alt_sys_init>:
    9718:	defffe04 	addi	sp,sp,-8
    971c:	dfc00115 	stw	ra,4(sp)
    9720:	df000015 	stw	fp,0(sp)
    9724:	d839883a 	mov	fp,sp
    9728:	01c0fa04 	movi	r7,1000
    972c:	01800044 	movi	r6,1
    9730:	000b883a 	mov	r5,zero
    9734:	01000074 	movhi	r4,1
    9738:	21040004 	addi	r4,r4,4096
    973c:	0009f280 	call	9f28 <alt_avalon_timer_sc_init>
    9740:	0001883a 	nop
    9744:	0001883a 	nop
    9748:	01000074 	movhi	r4,1
    974c:	212cf804 	addi	r4,r4,-19488
    9750:	00096ac0 	call	96ac <alt_dev_reg>
    9754:	0001883a 	nop
    9758:	e037883a 	mov	sp,fp
    975c:	dfc00117 	ldw	ra,4(sp)
    9760:	df000017 	ldw	fp,0(sp)
    9764:	dec00204 	addi	sp,sp,8
    9768:	f800283a 	ret

0000976c <altera_avalon_fifo_init>:
    976c:	defffa04 	addi	sp,sp,-24
    9770:	dfc00515 	stw	ra,20(sp)
    9774:	df000415 	stw	fp,16(sp)
    9778:	df000404 	addi	fp,sp,16
    977c:	e13ffc15 	stw	r4,-16(fp)
    9780:	e17ffd15 	stw	r5,-12(fp)
    9784:	e1bffe15 	stw	r6,-8(fp)
    9788:	e1ffff15 	stw	r7,-4(fp)
    978c:	01400fc4 	movi	r5,63
    9790:	e13ffc17 	ldw	r4,-16(fp)
    9794:	00099380 	call	9938 <altera_avalon_fifo_clear_event>
    9798:	10000226 	beq	r2,zero,97a4 <altera_avalon_fifo_init+0x38>
    979c:	00bfffc4 	movi	r2,-1
    97a0:	00001306 	br	97f0 <altera_avalon_fifo_init+0x84>
    97a4:	e17ffd17 	ldw	r5,-12(fp)
    97a8:	e13ffc17 	ldw	r4,-16(fp)
    97ac:	00099980 	call	9998 <altera_avalon_fifo_write_ienable>
    97b0:	10000226 	beq	r2,zero,97bc <altera_avalon_fifo_init+0x50>
    97b4:	00bfff84 	movi	r2,-2
    97b8:	00000d06 	br	97f0 <altera_avalon_fifo_init+0x84>
    97bc:	e17fff17 	ldw	r5,-4(fp)
    97c0:	e13ffc17 	ldw	r4,-16(fp)
    97c4:	00099f40 	call	99f4 <altera_avalon_fifo_write_almostfull>
    97c8:	10000226 	beq	r2,zero,97d4 <altera_avalon_fifo_init+0x68>
    97cc:	00bfff44 	movi	r2,-3
    97d0:	00000706 	br	97f0 <altera_avalon_fifo_init+0x84>
    97d4:	e17ffe17 	ldw	r5,-8(fp)
    97d8:	e13ffc17 	ldw	r4,-16(fp)
    97dc:	0009a500 	call	9a50 <altera_avalon_fifo_write_almostempty>
    97e0:	10000226 	beq	r2,zero,97ec <altera_avalon_fifo_init+0x80>
    97e4:	00bfff44 	movi	r2,-3
    97e8:	00000106 	br	97f0 <altera_avalon_fifo_init+0x84>
    97ec:	0005883a 	mov	r2,zero
    97f0:	e037883a 	mov	sp,fp
    97f4:	dfc00117 	ldw	ra,4(sp)
    97f8:	df000017 	ldw	fp,0(sp)
    97fc:	dec00204 	addi	sp,sp,8
    9800:	f800283a 	ret

00009804 <altera_avalon_fifo_read_status>:
    9804:	defffd04 	addi	sp,sp,-12
    9808:	df000215 	stw	fp,8(sp)
    980c:	df000204 	addi	fp,sp,8
    9810:	e13ffe15 	stw	r4,-8(fp)
    9814:	e17fff15 	stw	r5,-4(fp)
    9818:	e0bffe17 	ldw	r2,-8(fp)
    981c:	10800104 	addi	r2,r2,4
    9820:	10800037 	ldwio	r2,0(r2)
    9824:	1007883a 	mov	r3,r2
    9828:	e0bfff17 	ldw	r2,-4(fp)
    982c:	1884703a 	and	r2,r3,r2
    9830:	e037883a 	mov	sp,fp
    9834:	df000017 	ldw	fp,0(sp)
    9838:	dec00104 	addi	sp,sp,4
    983c:	f800283a 	ret

00009840 <altera_avalon_fifo_read_ienable>:
    9840:	defffd04 	addi	sp,sp,-12
    9844:	df000215 	stw	fp,8(sp)
    9848:	df000204 	addi	fp,sp,8
    984c:	e13ffe15 	stw	r4,-8(fp)
    9850:	e17fff15 	stw	r5,-4(fp)
    9854:	e0bffe17 	ldw	r2,-8(fp)
    9858:	10800304 	addi	r2,r2,12
    985c:	10800037 	ldwio	r2,0(r2)
    9860:	1007883a 	mov	r3,r2
    9864:	e0bfff17 	ldw	r2,-4(fp)
    9868:	1884703a 	and	r2,r3,r2
    986c:	e037883a 	mov	sp,fp
    9870:	df000017 	ldw	fp,0(sp)
    9874:	dec00104 	addi	sp,sp,4
    9878:	f800283a 	ret

0000987c <altera_avalon_fifo_read_almostfull>:
    987c:	defffe04 	addi	sp,sp,-8
    9880:	df000115 	stw	fp,4(sp)
    9884:	df000104 	addi	fp,sp,4
    9888:	e13fff15 	stw	r4,-4(fp)
    988c:	e0bfff17 	ldw	r2,-4(fp)
    9890:	10800404 	addi	r2,r2,16
    9894:	10800037 	ldwio	r2,0(r2)
    9898:	e037883a 	mov	sp,fp
    989c:	df000017 	ldw	fp,0(sp)
    98a0:	dec00104 	addi	sp,sp,4
    98a4:	f800283a 	ret

000098a8 <altera_avalon_fifo_read_almostempty>:
    98a8:	defffe04 	addi	sp,sp,-8
    98ac:	df000115 	stw	fp,4(sp)
    98b0:	df000104 	addi	fp,sp,4
    98b4:	e13fff15 	stw	r4,-4(fp)
    98b8:	e0bfff17 	ldw	r2,-4(fp)
    98bc:	10800504 	addi	r2,r2,20
    98c0:	10800037 	ldwio	r2,0(r2)
    98c4:	e037883a 	mov	sp,fp
    98c8:	df000017 	ldw	fp,0(sp)
    98cc:	dec00104 	addi	sp,sp,4
    98d0:	f800283a 	ret

000098d4 <altera_avalon_fifo_read_event>:
    98d4:	defffd04 	addi	sp,sp,-12
    98d8:	df000215 	stw	fp,8(sp)
    98dc:	df000204 	addi	fp,sp,8
    98e0:	e13ffe15 	stw	r4,-8(fp)
    98e4:	e17fff15 	stw	r5,-4(fp)
    98e8:	e0bffe17 	ldw	r2,-8(fp)
    98ec:	10800204 	addi	r2,r2,8
    98f0:	10800037 	ldwio	r2,0(r2)
    98f4:	1007883a 	mov	r3,r2
    98f8:	e0bfff17 	ldw	r2,-4(fp)
    98fc:	1884703a 	and	r2,r3,r2
    9900:	e037883a 	mov	sp,fp
    9904:	df000017 	ldw	fp,0(sp)
    9908:	dec00104 	addi	sp,sp,4
    990c:	f800283a 	ret

00009910 <altera_avalon_fifo_read_level>:
    9910:	defffe04 	addi	sp,sp,-8
    9914:	df000115 	stw	fp,4(sp)
    9918:	df000104 	addi	fp,sp,4
    991c:	e13fff15 	stw	r4,-4(fp)
    9920:	e0bfff17 	ldw	r2,-4(fp)
    9924:	10800037 	ldwio	r2,0(r2)
    9928:	e037883a 	mov	sp,fp
    992c:	df000017 	ldw	fp,0(sp)
    9930:	dec00104 	addi	sp,sp,4
    9934:	f800283a 	ret

00009938 <altera_avalon_fifo_clear_event>:
    9938:	defffd04 	addi	sp,sp,-12
    993c:	df000215 	stw	fp,8(sp)
    9940:	df000204 	addi	fp,sp,8
    9944:	e13ffe15 	stw	r4,-8(fp)
    9948:	e17fff15 	stw	r5,-4(fp)
    994c:	e0bffe17 	ldw	r2,-8(fp)
    9950:	10800204 	addi	r2,r2,8
    9954:	1007883a 	mov	r3,r2
    9958:	e0bfff17 	ldw	r2,-4(fp)
    995c:	18800035 	stwio	r2,0(r3)
    9960:	e0bffe17 	ldw	r2,-8(fp)
    9964:	10800204 	addi	r2,r2,8
    9968:	10800037 	ldwio	r2,0(r2)
    996c:	1007883a 	mov	r3,r2
    9970:	e0bfff17 	ldw	r2,-4(fp)
    9974:	1884703a 	and	r2,r3,r2
    9978:	1000021e 	bne	r2,zero,9984 <altera_avalon_fifo_clear_event+0x4c>
    997c:	0005883a 	mov	r2,zero
    9980:	00000106 	br	9988 <altera_avalon_fifo_clear_event+0x50>
    9984:	00bfffc4 	movi	r2,-1
    9988:	e037883a 	mov	sp,fp
    998c:	df000017 	ldw	fp,0(sp)
    9990:	dec00104 	addi	sp,sp,4
    9994:	f800283a 	ret

00009998 <altera_avalon_fifo_write_ienable>:
    9998:	defffd04 	addi	sp,sp,-12
    999c:	df000215 	stw	fp,8(sp)
    99a0:	df000204 	addi	fp,sp,8
    99a4:	e13ffe15 	stw	r4,-8(fp)
    99a8:	e17fff15 	stw	r5,-4(fp)
    99ac:	e0bffe17 	ldw	r2,-8(fp)
    99b0:	10800304 	addi	r2,r2,12
    99b4:	1007883a 	mov	r3,r2
    99b8:	e0bfff17 	ldw	r2,-4(fp)
    99bc:	18800035 	stwio	r2,0(r3)
    99c0:	e0bffe17 	ldw	r2,-8(fp)
    99c4:	10800304 	addi	r2,r2,12
    99c8:	10800037 	ldwio	r2,0(r2)
    99cc:	1007883a 	mov	r3,r2
    99d0:	e0bfff17 	ldw	r2,-4(fp)
    99d4:	1880021e 	bne	r3,r2,99e0 <altera_avalon_fifo_write_ienable+0x48>
    99d8:	0005883a 	mov	r2,zero
    99dc:	00000106 	br	99e4 <altera_avalon_fifo_write_ienable+0x4c>
    99e0:	00bfff84 	movi	r2,-2
    99e4:	e037883a 	mov	sp,fp
    99e8:	df000017 	ldw	fp,0(sp)
    99ec:	dec00104 	addi	sp,sp,4
    99f0:	f800283a 	ret

000099f4 <altera_avalon_fifo_write_almostfull>:
    99f4:	defffd04 	addi	sp,sp,-12
    99f8:	df000215 	stw	fp,8(sp)
    99fc:	df000204 	addi	fp,sp,8
    9a00:	e13ffe15 	stw	r4,-8(fp)
    9a04:	e17fff15 	stw	r5,-4(fp)
    9a08:	e0bffe17 	ldw	r2,-8(fp)
    9a0c:	10800404 	addi	r2,r2,16
    9a10:	1007883a 	mov	r3,r2
    9a14:	e0bfff17 	ldw	r2,-4(fp)
    9a18:	18800035 	stwio	r2,0(r3)
    9a1c:	e0bffe17 	ldw	r2,-8(fp)
    9a20:	10800404 	addi	r2,r2,16
    9a24:	10800037 	ldwio	r2,0(r2)
    9a28:	1007883a 	mov	r3,r2
    9a2c:	e0bfff17 	ldw	r2,-4(fp)
    9a30:	1880021e 	bne	r3,r2,9a3c <altera_avalon_fifo_write_almostfull+0x48>
    9a34:	0005883a 	mov	r2,zero
    9a38:	00000106 	br	9a40 <altera_avalon_fifo_write_almostfull+0x4c>
    9a3c:	00bfff44 	movi	r2,-3
    9a40:	e037883a 	mov	sp,fp
    9a44:	df000017 	ldw	fp,0(sp)
    9a48:	dec00104 	addi	sp,sp,4
    9a4c:	f800283a 	ret

00009a50 <altera_avalon_fifo_write_almostempty>:
    9a50:	defffd04 	addi	sp,sp,-12
    9a54:	df000215 	stw	fp,8(sp)
    9a58:	df000204 	addi	fp,sp,8
    9a5c:	e13ffe15 	stw	r4,-8(fp)
    9a60:	e17fff15 	stw	r5,-4(fp)
    9a64:	e0bffe17 	ldw	r2,-8(fp)
    9a68:	10800504 	addi	r2,r2,20
    9a6c:	1007883a 	mov	r3,r2
    9a70:	e0bfff17 	ldw	r2,-4(fp)
    9a74:	18800035 	stwio	r2,0(r3)
    9a78:	e0bffe17 	ldw	r2,-8(fp)
    9a7c:	10800504 	addi	r2,r2,20
    9a80:	10800037 	ldwio	r2,0(r2)
    9a84:	1007883a 	mov	r3,r2
    9a88:	e0bfff17 	ldw	r2,-4(fp)
    9a8c:	1880021e 	bne	r3,r2,9a98 <altera_avalon_fifo_write_almostempty+0x48>
    9a90:	0005883a 	mov	r2,zero
    9a94:	00000106 	br	9a9c <altera_avalon_fifo_write_almostempty+0x4c>
    9a98:	00bfff44 	movi	r2,-3
    9a9c:	e037883a 	mov	sp,fp
    9aa0:	df000017 	ldw	fp,0(sp)
    9aa4:	dec00104 	addi	sp,sp,4
    9aa8:	f800283a 	ret

00009aac <altera_avalon_fifo_write_fifo>:
    9aac:	defffb04 	addi	sp,sp,-20
    9ab0:	dfc00415 	stw	ra,16(sp)
    9ab4:	df000315 	stw	fp,12(sp)
    9ab8:	df000304 	addi	fp,sp,12
    9abc:	e13ffd15 	stw	r4,-12(fp)
    9ac0:	e17ffe15 	stw	r5,-8(fp)
    9ac4:	e1bfff15 	stw	r6,-4(fp)
    9ac8:	01400044 	movi	r5,1
    9acc:	e13ffe17 	ldw	r4,-8(fp)
    9ad0:	00098040 	call	9804 <altera_avalon_fifo_read_status>
    9ad4:	1000051e 	bne	r2,zero,9aec <altera_avalon_fifo_write_fifo+0x40>
    9ad8:	e0bffd17 	ldw	r2,-12(fp)
    9adc:	e0ffff17 	ldw	r3,-4(fp)
    9ae0:	10c00035 	stwio	r3,0(r2)
    9ae4:	0005883a 	mov	r2,zero
    9ae8:	00000106 	br	9af0 <altera_avalon_fifo_write_fifo+0x44>
    9aec:	00bfff04 	movi	r2,-4
    9af0:	e037883a 	mov	sp,fp
    9af4:	dfc00117 	ldw	ra,4(sp)
    9af8:	df000017 	ldw	fp,0(sp)
    9afc:	dec00204 	addi	sp,sp,8
    9b00:	f800283a 	ret

00009b04 <altera_avalon_read_fifo>:
    9b04:	defffa04 	addi	sp,sp,-24
    9b08:	dfc00515 	stw	ra,20(sp)
    9b0c:	df000415 	stw	fp,16(sp)
    9b10:	df000404 	addi	fp,sp,16
    9b14:	e13ffd15 	stw	r4,-12(fp)
    9b18:	e17ffe15 	stw	r5,-8(fp)
    9b1c:	e1bfff15 	stw	r6,-4(fp)
    9b20:	e03ffc15 	stw	zero,-16(fp)
    9b24:	e0bfff17 	ldw	r2,-4(fp)
    9b28:	10000015 	stw	zero,0(r2)
    9b2c:	01400084 	movi	r5,2
    9b30:	e13ffe17 	ldw	r4,-8(fp)
    9b34:	00098040 	call	9804 <altera_avalon_fifo_read_status>
    9b38:	1000071e 	bne	r2,zero,9b58 <altera_avalon_read_fifo+0x54>
    9b3c:	e13ffe17 	ldw	r4,-8(fp)
    9b40:	00099100 	call	9910 <altera_avalon_fifo_read_level>
    9b44:	e0bffc15 	stw	r2,-16(fp)
    9b48:	e0bffd17 	ldw	r2,-12(fp)
    9b4c:	10c00037 	ldwio	r3,0(r2)
    9b50:	e0bfff17 	ldw	r2,-4(fp)
    9b54:	10c00015 	stw	r3,0(r2)
    9b58:	e0bffc17 	ldw	r2,-16(fp)
    9b5c:	e037883a 	mov	sp,fp
    9b60:	dfc00117 	ldw	ra,4(sp)
    9b64:	df000017 	ldw	fp,0(sp)
    9b68:	dec00204 	addi	sp,sp,8
    9b6c:	f800283a 	ret

00009b70 <altera_avalon_fifo_read_fifo>:
    9b70:	defffc04 	addi	sp,sp,-16
    9b74:	dfc00315 	stw	ra,12(sp)
    9b78:	df000215 	stw	fp,8(sp)
    9b7c:	df000204 	addi	fp,sp,8
    9b80:	e13ffe15 	stw	r4,-8(fp)
    9b84:	e17fff15 	stw	r5,-4(fp)
    9b88:	01400084 	movi	r5,2
    9b8c:	e13fff17 	ldw	r4,-4(fp)
    9b90:	00098040 	call	9804 <altera_avalon_fifo_read_status>
    9b94:	1000031e 	bne	r2,zero,9ba4 <altera_avalon_fifo_read_fifo+0x34>
    9b98:	e0bffe17 	ldw	r2,-8(fp)
    9b9c:	10800037 	ldwio	r2,0(r2)
    9ba0:	00000106 	br	9ba8 <altera_avalon_fifo_read_fifo+0x38>
    9ba4:	0005883a 	mov	r2,zero
    9ba8:	e037883a 	mov	sp,fp
    9bac:	dfc00117 	ldw	ra,4(sp)
    9bb0:	df000017 	ldw	fp,0(sp)
    9bb4:	dec00204 	addi	sp,sp,8
    9bb8:	f800283a 	ret

00009bbc <altera_avalon_fifo_write_other_info>:
    9bbc:	defffb04 	addi	sp,sp,-20
    9bc0:	dfc00415 	stw	ra,16(sp)
    9bc4:	df000315 	stw	fp,12(sp)
    9bc8:	df000304 	addi	fp,sp,12
    9bcc:	e13ffd15 	stw	r4,-12(fp)
    9bd0:	e17ffe15 	stw	r5,-8(fp)
    9bd4:	e1bfff15 	stw	r6,-4(fp)
    9bd8:	01400044 	movi	r5,1
    9bdc:	e13ffe17 	ldw	r4,-8(fp)
    9be0:	00098040 	call	9804 <altera_avalon_fifo_read_status>
    9be4:	1000071e 	bne	r2,zero,9c04 <altera_avalon_fifo_write_other_info+0x48>
    9be8:	e0bffd17 	ldw	r2,-12(fp)
    9bec:	10800104 	addi	r2,r2,4
    9bf0:	1007883a 	mov	r3,r2
    9bf4:	e0bfff17 	ldw	r2,-4(fp)
    9bf8:	18800035 	stwio	r2,0(r3)
    9bfc:	0005883a 	mov	r2,zero
    9c00:	00000106 	br	9c08 <altera_avalon_fifo_write_other_info+0x4c>
    9c04:	00bfff04 	movi	r2,-4
    9c08:	e037883a 	mov	sp,fp
    9c0c:	dfc00117 	ldw	ra,4(sp)
    9c10:	df000017 	ldw	fp,0(sp)
    9c14:	dec00204 	addi	sp,sp,8
    9c18:	f800283a 	ret

00009c1c <altera_avalon_fifo_read_other_info>:
    9c1c:	defffe04 	addi	sp,sp,-8
    9c20:	df000115 	stw	fp,4(sp)
    9c24:	df000104 	addi	fp,sp,4
    9c28:	e13fff15 	stw	r4,-4(fp)
    9c2c:	e0bfff17 	ldw	r2,-4(fp)
    9c30:	10800104 	addi	r2,r2,4
    9c34:	10800037 	ldwio	r2,0(r2)
    9c38:	e037883a 	mov	sp,fp
    9c3c:	df000017 	ldw	fp,0(sp)
    9c40:	dec00104 	addi	sp,sp,4
    9c44:	f800283a 	ret

00009c48 <altera_avalon_fifo_read_backpressure>:
    9c48:	defffe04 	addi	sp,sp,-8
    9c4c:	df000115 	stw	fp,4(sp)
    9c50:	df000104 	addi	fp,sp,4
    9c54:	e13fff15 	stw	r4,-4(fp)
    9c58:	e0bfff17 	ldw	r2,-4(fp)
    9c5c:	10800037 	ldwio	r2,0(r2)
    9c60:	e037883a 	mov	sp,fp
    9c64:	df000017 	ldw	fp,0(sp)
    9c68:	dec00104 	addi	sp,sp,4
    9c6c:	f800283a 	ret

00009c70 <altera_avalon_jtag_uart_read_fd>:
    9c70:	defffa04 	addi	sp,sp,-24
    9c74:	dfc00515 	stw	ra,20(sp)
    9c78:	df000415 	stw	fp,16(sp)
    9c7c:	df000404 	addi	fp,sp,16
    9c80:	e13ffd15 	stw	r4,-12(fp)
    9c84:	e17ffe15 	stw	r5,-8(fp)
    9c88:	e1bfff15 	stw	r6,-4(fp)
    9c8c:	e0bffd17 	ldw	r2,-12(fp)
    9c90:	10800017 	ldw	r2,0(r2)
    9c94:	e0bffc15 	stw	r2,-16(fp)
    9c98:	e0bffc17 	ldw	r2,-16(fp)
    9c9c:	10c00a04 	addi	r3,r2,40
    9ca0:	e0bffd17 	ldw	r2,-12(fp)
    9ca4:	10800217 	ldw	r2,8(r2)
    9ca8:	100f883a 	mov	r7,r2
    9cac:	e1bfff17 	ldw	r6,-4(fp)
    9cb0:	e17ffe17 	ldw	r5,-8(fp)
    9cb4:	1809883a 	mov	r4,r3
    9cb8:	0009d300 	call	9d30 <altera_avalon_jtag_uart_read>
    9cbc:	e037883a 	mov	sp,fp
    9cc0:	dfc00117 	ldw	ra,4(sp)
    9cc4:	df000017 	ldw	fp,0(sp)
    9cc8:	dec00204 	addi	sp,sp,8
    9ccc:	f800283a 	ret

00009cd0 <altera_avalon_jtag_uart_write_fd>:
    9cd0:	defffa04 	addi	sp,sp,-24
    9cd4:	dfc00515 	stw	ra,20(sp)
    9cd8:	df000415 	stw	fp,16(sp)
    9cdc:	df000404 	addi	fp,sp,16
    9ce0:	e13ffd15 	stw	r4,-12(fp)
    9ce4:	e17ffe15 	stw	r5,-8(fp)
    9ce8:	e1bfff15 	stw	r6,-4(fp)
    9cec:	e0bffd17 	ldw	r2,-12(fp)
    9cf0:	10800017 	ldw	r2,0(r2)
    9cf4:	e0bffc15 	stw	r2,-16(fp)
    9cf8:	e0bffc17 	ldw	r2,-16(fp)
    9cfc:	10c00a04 	addi	r3,r2,40
    9d00:	e0bffd17 	ldw	r2,-12(fp)
    9d04:	10800217 	ldw	r2,8(r2)
    9d08:	100f883a 	mov	r7,r2
    9d0c:	e1bfff17 	ldw	r6,-4(fp)
    9d10:	e17ffe17 	ldw	r5,-8(fp)
    9d14:	1809883a 	mov	r4,r3
    9d18:	0009e1c0 	call	9e1c <altera_avalon_jtag_uart_write>
    9d1c:	e037883a 	mov	sp,fp
    9d20:	dfc00117 	ldw	ra,4(sp)
    9d24:	df000017 	ldw	fp,0(sp)
    9d28:	dec00204 	addi	sp,sp,8
    9d2c:	f800283a 	ret

00009d30 <altera_avalon_jtag_uart_read>:
    9d30:	defff704 	addi	sp,sp,-36
    9d34:	df000815 	stw	fp,32(sp)
    9d38:	df000804 	addi	fp,sp,32
    9d3c:	e13ffc15 	stw	r4,-16(fp)
    9d40:	e17ffd15 	stw	r5,-12(fp)
    9d44:	e1bffe15 	stw	r6,-8(fp)
    9d48:	e1ffff15 	stw	r7,-4(fp)
    9d4c:	e0bffc17 	ldw	r2,-16(fp)
    9d50:	10800017 	ldw	r2,0(r2)
    9d54:	e0bff915 	stw	r2,-28(fp)
    9d58:	e0bffd17 	ldw	r2,-12(fp)
    9d5c:	e0bff815 	stw	r2,-32(fp)
    9d60:	e0bffe17 	ldw	r2,-8(fp)
    9d64:	e0fffd17 	ldw	r3,-12(fp)
    9d68:	1885883a 	add	r2,r3,r2
    9d6c:	e0bffa15 	stw	r2,-24(fp)
    9d70:	00001206 	br	9dbc <altera_avalon_jtag_uart_read+0x8c>
    9d74:	e0bff917 	ldw	r2,-28(fp)
    9d78:	10800037 	ldwio	r2,0(r2)
    9d7c:	e0bffb15 	stw	r2,-20(fp)
    9d80:	e0bffb17 	ldw	r2,-20(fp)
    9d84:	10a0000c 	andi	r2,r2,32768
    9d88:	10000626 	beq	r2,zero,9da4 <altera_avalon_jtag_uart_read+0x74>
    9d8c:	e0bff817 	ldw	r2,-32(fp)
    9d90:	10c00044 	addi	r3,r2,1
    9d94:	e0fff815 	stw	r3,-32(fp)
    9d98:	e0fffb17 	ldw	r3,-20(fp)
    9d9c:	10c00005 	stb	r3,0(r2)
    9da0:	00000606 	br	9dbc <altera_avalon_jtag_uart_read+0x8c>
    9da4:	e0fff817 	ldw	r3,-32(fp)
    9da8:	e0bffd17 	ldw	r2,-12(fp)
    9dac:	1880071e 	bne	r3,r2,9dcc <altera_avalon_jtag_uart_read+0x9c>
    9db0:	e0bfff17 	ldw	r2,-4(fp)
    9db4:	1090000c 	andi	r2,r2,16384
    9db8:	1000061e 	bne	r2,zero,9dd4 <altera_avalon_jtag_uart_read+0xa4>
    9dbc:	e0fff817 	ldw	r3,-32(fp)
    9dc0:	e0bffa17 	ldw	r2,-24(fp)
    9dc4:	18bfeb36 	bltu	r3,r2,9d74 <_gp+0xffff67c0>
    9dc8:	00000306 	br	9dd8 <altera_avalon_jtag_uart_read+0xa8>
    9dcc:	0001883a 	nop
    9dd0:	00000106 	br	9dd8 <altera_avalon_jtag_uart_read+0xa8>
    9dd4:	0001883a 	nop
    9dd8:	e0fff817 	ldw	r3,-32(fp)
    9ddc:	e0bffd17 	ldw	r2,-12(fp)
    9de0:	18800426 	beq	r3,r2,9df4 <altera_avalon_jtag_uart_read+0xc4>
    9de4:	e0fff817 	ldw	r3,-32(fp)
    9de8:	e0bffd17 	ldw	r2,-12(fp)
    9dec:	1885c83a 	sub	r2,r3,r2
    9df0:	00000606 	br	9e0c <altera_avalon_jtag_uart_read+0xdc>
    9df4:	e0bfff17 	ldw	r2,-4(fp)
    9df8:	1090000c 	andi	r2,r2,16384
    9dfc:	10000226 	beq	r2,zero,9e08 <altera_avalon_jtag_uart_read+0xd8>
    9e00:	00bffd44 	movi	r2,-11
    9e04:	00000106 	br	9e0c <altera_avalon_jtag_uart_read+0xdc>
    9e08:	00bffec4 	movi	r2,-5
    9e0c:	e037883a 	mov	sp,fp
    9e10:	df000017 	ldw	fp,0(sp)
    9e14:	dec00104 	addi	sp,sp,4
    9e18:	f800283a 	ret

00009e1c <altera_avalon_jtag_uart_write>:
    9e1c:	defff904 	addi	sp,sp,-28
    9e20:	df000615 	stw	fp,24(sp)
    9e24:	df000604 	addi	fp,sp,24
    9e28:	e13ffc15 	stw	r4,-16(fp)
    9e2c:	e17ffd15 	stw	r5,-12(fp)
    9e30:	e1bffe15 	stw	r6,-8(fp)
    9e34:	e1ffff15 	stw	r7,-4(fp)
    9e38:	e0bffc17 	ldw	r2,-16(fp)
    9e3c:	10800017 	ldw	r2,0(r2)
    9e40:	e0bffa15 	stw	r2,-24(fp)
    9e44:	e0bffe17 	ldw	r2,-8(fp)
    9e48:	e0fffd17 	ldw	r3,-12(fp)
    9e4c:	1885883a 	add	r2,r3,r2
    9e50:	e0bffb15 	stw	r2,-20(fp)
    9e54:	00000e06 	br	9e90 <altera_avalon_jtag_uart_write+0x74>
    9e58:	e0bffa17 	ldw	r2,-24(fp)
    9e5c:	10800104 	addi	r2,r2,4
    9e60:	10800037 	ldwio	r2,0(r2)
    9e64:	10bfffec 	andhi	r2,r2,65535
    9e68:	10000926 	beq	r2,zero,9e90 <altera_avalon_jtag_uart_write+0x74>
    9e6c:	e0fffa17 	ldw	r3,-24(fp)
    9e70:	e0bffd17 	ldw	r2,-12(fp)
    9e74:	11000044 	addi	r4,r2,1
    9e78:	e13ffd15 	stw	r4,-12(fp)
    9e7c:	10800003 	ldbu	r2,0(r2)
    9e80:	10803fcc 	andi	r2,r2,255
    9e84:	1080201c 	xori	r2,r2,128
    9e88:	10bfe004 	addi	r2,r2,-128
    9e8c:	18800035 	stwio	r2,0(r3)
    9e90:	e0fffd17 	ldw	r3,-12(fp)
    9e94:	e0bffb17 	ldw	r2,-20(fp)
    9e98:	18bfef36 	bltu	r3,r2,9e58 <_gp+0xffff68a4>
    9e9c:	e0bffe17 	ldw	r2,-8(fp)
    9ea0:	e037883a 	mov	sp,fp
    9ea4:	df000017 	ldw	fp,0(sp)
    9ea8:	dec00104 	addi	sp,sp,4
    9eac:	f800283a 	ret

00009eb0 <alt_avalon_timer_sc_irq>:
    9eb0:	defffa04 	addi	sp,sp,-24
    9eb4:	dfc00515 	stw	ra,20(sp)
    9eb8:	df000415 	stw	fp,16(sp)
    9ebc:	df000404 	addi	fp,sp,16
    9ec0:	e13fff15 	stw	r4,-4(fp)
    9ec4:	0007883a 	mov	r3,zero
    9ec8:	e0bfff17 	ldw	r2,-4(fp)
    9ecc:	10c00035 	stwio	r3,0(r2)
    9ed0:	e0bfff17 	ldw	r2,-4(fp)
    9ed4:	10800104 	addi	r2,r2,4
    9ed8:	10800037 	ldwio	r2,0(r2)
    9edc:	0005303a 	rdctl	r2,status
    9ee0:	e0bffd15 	stw	r2,-12(fp)
    9ee4:	e0fffd17 	ldw	r3,-12(fp)
    9ee8:	00bfff84 	movi	r2,-2
    9eec:	1884703a 	and	r2,r3,r2
    9ef0:	1001703a 	wrctl	status,r2
    9ef4:	e0bffd17 	ldw	r2,-12(fp)
    9ef8:	e0bffc15 	stw	r2,-16(fp)
    9efc:	000aa680 	call	aa68 <alt_tick>
    9f00:	e0bffc17 	ldw	r2,-16(fp)
    9f04:	e0bffe15 	stw	r2,-8(fp)
    9f08:	e0bffe17 	ldw	r2,-8(fp)
    9f0c:	1001703a 	wrctl	status,r2
    9f10:	0001883a 	nop
    9f14:	e037883a 	mov	sp,fp
    9f18:	dfc00117 	ldw	ra,4(sp)
    9f1c:	df000017 	ldw	fp,0(sp)
    9f20:	dec00204 	addi	sp,sp,8
    9f24:	f800283a 	ret

00009f28 <alt_avalon_timer_sc_init>:
    9f28:	defff804 	addi	sp,sp,-32
    9f2c:	dfc00715 	stw	ra,28(sp)
    9f30:	df000615 	stw	fp,24(sp)
    9f34:	df000604 	addi	fp,sp,24
    9f38:	e13ffc15 	stw	r4,-16(fp)
    9f3c:	e17ffd15 	stw	r5,-12(fp)
    9f40:	e1bffe15 	stw	r6,-8(fp)
    9f44:	e1ffff15 	stw	r7,-4(fp)
    9f48:	e0bfff17 	ldw	r2,-4(fp)
    9f4c:	e0bffb15 	stw	r2,-20(fp)
    9f50:	d0a0fe17 	ldw	r2,-31752(gp)
    9f54:	1000021e 	bne	r2,zero,9f60 <alt_avalon_timer_sc_init+0x38>
    9f58:	e0bffb17 	ldw	r2,-20(fp)
    9f5c:	d0a0fe15 	stw	r2,-31752(gp)
    9f60:	e0bffc17 	ldw	r2,-16(fp)
    9f64:	10800104 	addi	r2,r2,4
    9f68:	00c001c4 	movi	r3,7
    9f6c:	10c00035 	stwio	r3,0(r2)
    9f70:	d8000015 	stw	zero,0(sp)
    9f74:	e1fffc17 	ldw	r7,-16(fp)
    9f78:	01800074 	movhi	r6,1
    9f7c:	31a7ac04 	addi	r6,r6,-24912
    9f80:	e17ffe17 	ldw	r5,-8(fp)
    9f84:	e13ffd17 	ldw	r4,-12(fp)
    9f88:	000a2c40 	call	a2c4 <alt_ic_isr_register>
    9f8c:	0001883a 	nop
    9f90:	e037883a 	mov	sp,fp
    9f94:	dfc00117 	ldw	ra,4(sp)
    9f98:	df000017 	ldw	fp,0(sp)
    9f9c:	dec00204 	addi	sp,sp,8
    9fa0:	f800283a 	ret

00009fa4 <alt_get_errno>:
    9fa4:	defffe04 	addi	sp,sp,-8
    9fa8:	dfc00115 	stw	ra,4(sp)
    9fac:	df000015 	stw	fp,0(sp)
    9fb0:	d839883a 	mov	fp,sp
    9fb4:	d0a00d17 	ldw	r2,-32716(gp)
    9fb8:	10000326 	beq	r2,zero,9fc8 <alt_get_errno+0x24>
    9fbc:	d0a00d17 	ldw	r2,-32716(gp)
    9fc0:	103ee83a 	callr	r2
    9fc4:	00000106 	br	9fcc <alt_get_errno+0x28>
    9fc8:	d0a0f904 	addi	r2,gp,-31772
    9fcc:	e037883a 	mov	sp,fp
    9fd0:	dfc00117 	ldw	ra,4(sp)
    9fd4:	df000017 	ldw	fp,0(sp)
    9fd8:	dec00204 	addi	sp,sp,8
    9fdc:	f800283a 	ret

00009fe0 <close>:
    9fe0:	defffb04 	addi	sp,sp,-20
    9fe4:	dfc00415 	stw	ra,16(sp)
    9fe8:	df000315 	stw	fp,12(sp)
    9fec:	df000304 	addi	fp,sp,12
    9ff0:	e13fff15 	stw	r4,-4(fp)
    9ff4:	e0bfff17 	ldw	r2,-4(fp)
    9ff8:	10000816 	blt	r2,zero,a01c <close+0x3c>
    9ffc:	01400304 	movi	r5,12
    a000:	e13fff17 	ldw	r4,-4(fp)
    a004:	00091b80 	call	91b8 <__mulsi3>
    a008:	1007883a 	mov	r3,r2
    a00c:	00800074 	movhi	r2,1
    a010:	10ad0d04 	addi	r2,r2,-19404
    a014:	1885883a 	add	r2,r3,r2
    a018:	00000106 	br	a020 <close+0x40>
    a01c:	0005883a 	mov	r2,zero
    a020:	e0bffd15 	stw	r2,-12(fp)
    a024:	e0bffd17 	ldw	r2,-12(fp)
    a028:	10001926 	beq	r2,zero,a090 <close+0xb0>
    a02c:	e0bffd17 	ldw	r2,-12(fp)
    a030:	10800017 	ldw	r2,0(r2)
    a034:	10800417 	ldw	r2,16(r2)
    a038:	10000626 	beq	r2,zero,a054 <close+0x74>
    a03c:	e0bffd17 	ldw	r2,-12(fp)
    a040:	10800017 	ldw	r2,0(r2)
    a044:	10800417 	ldw	r2,16(r2)
    a048:	e13ffd17 	ldw	r4,-12(fp)
    a04c:	103ee83a 	callr	r2
    a050:	00000106 	br	a058 <close+0x78>
    a054:	0005883a 	mov	r2,zero
    a058:	e0bffe15 	stw	r2,-8(fp)
    a05c:	e13fff17 	ldw	r4,-4(fp)
    a060:	000a9480 	call	a948 <alt_release_fd>
    a064:	e0bffe17 	ldw	r2,-8(fp)
    a068:	1000070e 	bge	r2,zero,a088 <close+0xa8>
    a06c:	0009fa40 	call	9fa4 <alt_get_errno>
    a070:	1007883a 	mov	r3,r2
    a074:	e0bffe17 	ldw	r2,-8(fp)
    a078:	0085c83a 	sub	r2,zero,r2
    a07c:	18800015 	stw	r2,0(r3)
    a080:	00bfffc4 	movi	r2,-1
    a084:	00000706 	br	a0a4 <close+0xc4>
    a088:	0005883a 	mov	r2,zero
    a08c:	00000506 	br	a0a4 <close+0xc4>
    a090:	0009fa40 	call	9fa4 <alt_get_errno>
    a094:	1007883a 	mov	r3,r2
    a098:	00801444 	movi	r2,81
    a09c:	18800015 	stw	r2,0(r3)
    a0a0:	00bfffc4 	movi	r2,-1
    a0a4:	e037883a 	mov	sp,fp
    a0a8:	dfc00117 	ldw	ra,4(sp)
    a0ac:	df000017 	ldw	fp,0(sp)
    a0b0:	dec00204 	addi	sp,sp,8
    a0b4:	f800283a 	ret

0000a0b8 <alt_dcache_flush_all>:
    a0b8:	deffff04 	addi	sp,sp,-4
    a0bc:	df000015 	stw	fp,0(sp)
    a0c0:	d839883a 	mov	fp,sp
    a0c4:	0001883a 	nop
    a0c8:	e037883a 	mov	sp,fp
    a0cc:	df000017 	ldw	fp,0(sp)
    a0d0:	dec00104 	addi	sp,sp,4
    a0d4:	f800283a 	ret

0000a0d8 <alt_dev_null_write>:
    a0d8:	defffc04 	addi	sp,sp,-16
    a0dc:	df000315 	stw	fp,12(sp)
    a0e0:	df000304 	addi	fp,sp,12
    a0e4:	e13ffd15 	stw	r4,-12(fp)
    a0e8:	e17ffe15 	stw	r5,-8(fp)
    a0ec:	e1bfff15 	stw	r6,-4(fp)
    a0f0:	e0bfff17 	ldw	r2,-4(fp)
    a0f4:	e037883a 	mov	sp,fp
    a0f8:	df000017 	ldw	fp,0(sp)
    a0fc:	dec00104 	addi	sp,sp,4
    a100:	f800283a 	ret

0000a104 <alt_get_errno>:
    a104:	defffe04 	addi	sp,sp,-8
    a108:	dfc00115 	stw	ra,4(sp)
    a10c:	df000015 	stw	fp,0(sp)
    a110:	d839883a 	mov	fp,sp
    a114:	d0a00d17 	ldw	r2,-32716(gp)
    a118:	10000326 	beq	r2,zero,a128 <alt_get_errno+0x24>
    a11c:	d0a00d17 	ldw	r2,-32716(gp)
    a120:	103ee83a 	callr	r2
    a124:	00000106 	br	a12c <alt_get_errno+0x28>
    a128:	d0a0f904 	addi	r2,gp,-31772
    a12c:	e037883a 	mov	sp,fp
    a130:	dfc00117 	ldw	ra,4(sp)
    a134:	df000017 	ldw	fp,0(sp)
    a138:	dec00204 	addi	sp,sp,8
    a13c:	f800283a 	ret

0000a140 <alt_dev_llist_insert>:
    a140:	defffa04 	addi	sp,sp,-24
    a144:	dfc00515 	stw	ra,20(sp)
    a148:	df000415 	stw	fp,16(sp)
    a14c:	df000404 	addi	fp,sp,16
    a150:	e13ffe15 	stw	r4,-8(fp)
    a154:	e17fff15 	stw	r5,-4(fp)
    a158:	e0bffe17 	ldw	r2,-8(fp)
    a15c:	10000326 	beq	r2,zero,a16c <alt_dev_llist_insert+0x2c>
    a160:	e0bffe17 	ldw	r2,-8(fp)
    a164:	10800217 	ldw	r2,8(r2)
    a168:	1000061e 	bne	r2,zero,a184 <alt_dev_llist_insert+0x44>
    a16c:	000a1040 	call	a104 <alt_get_errno>
    a170:	1007883a 	mov	r3,r2
    a174:	00800584 	movi	r2,22
    a178:	18800015 	stw	r2,0(r3)
    a17c:	00bffa84 	movi	r2,-22
    a180:	00001306 	br	a1d0 <alt_dev_llist_insert+0x90>
    a184:	e0bffe17 	ldw	r2,-8(fp)
    a188:	e0ffff17 	ldw	r3,-4(fp)
    a18c:	e0fffc15 	stw	r3,-16(fp)
    a190:	e0bffd15 	stw	r2,-12(fp)
    a194:	e0bffd17 	ldw	r2,-12(fp)
    a198:	e0fffc17 	ldw	r3,-16(fp)
    a19c:	10c00115 	stw	r3,4(r2)
    a1a0:	e0bffc17 	ldw	r2,-16(fp)
    a1a4:	10c00017 	ldw	r3,0(r2)
    a1a8:	e0bffd17 	ldw	r2,-12(fp)
    a1ac:	10c00015 	stw	r3,0(r2)
    a1b0:	e0bffc17 	ldw	r2,-16(fp)
    a1b4:	10800017 	ldw	r2,0(r2)
    a1b8:	e0fffd17 	ldw	r3,-12(fp)
    a1bc:	10c00115 	stw	r3,4(r2)
    a1c0:	e0bffc17 	ldw	r2,-16(fp)
    a1c4:	e0fffd17 	ldw	r3,-12(fp)
    a1c8:	10c00015 	stw	r3,0(r2)
    a1cc:	0005883a 	mov	r2,zero
    a1d0:	e037883a 	mov	sp,fp
    a1d4:	dfc00117 	ldw	ra,4(sp)
    a1d8:	df000017 	ldw	fp,0(sp)
    a1dc:	dec00204 	addi	sp,sp,8
    a1e0:	f800283a 	ret

0000a1e4 <_do_ctors>:
    a1e4:	defffd04 	addi	sp,sp,-12
    a1e8:	dfc00215 	stw	ra,8(sp)
    a1ec:	df000115 	stw	fp,4(sp)
    a1f0:	df000104 	addi	fp,sp,4
    a1f4:	00800074 	movhi	r2,1
    a1f8:	10ac8904 	addi	r2,r2,-19932
    a1fc:	e0bfff15 	stw	r2,-4(fp)
    a200:	00000606 	br	a21c <_do_ctors+0x38>
    a204:	e0bfff17 	ldw	r2,-4(fp)
    a208:	10800017 	ldw	r2,0(r2)
    a20c:	103ee83a 	callr	r2
    a210:	e0bfff17 	ldw	r2,-4(fp)
    a214:	10bfff04 	addi	r2,r2,-4
    a218:	e0bfff15 	stw	r2,-4(fp)
    a21c:	e0ffff17 	ldw	r3,-4(fp)
    a220:	00800074 	movhi	r2,1
    a224:	10ac8a04 	addi	r2,r2,-19928
    a228:	18bff62e 	bgeu	r3,r2,a204 <_gp+0xffff6c50>
    a22c:	0001883a 	nop
    a230:	e037883a 	mov	sp,fp
    a234:	dfc00117 	ldw	ra,4(sp)
    a238:	df000017 	ldw	fp,0(sp)
    a23c:	dec00204 	addi	sp,sp,8
    a240:	f800283a 	ret

0000a244 <_do_dtors>:
    a244:	defffd04 	addi	sp,sp,-12
    a248:	dfc00215 	stw	ra,8(sp)
    a24c:	df000115 	stw	fp,4(sp)
    a250:	df000104 	addi	fp,sp,4
    a254:	00800074 	movhi	r2,1
    a258:	10ac8904 	addi	r2,r2,-19932
    a25c:	e0bfff15 	stw	r2,-4(fp)
    a260:	00000606 	br	a27c <_do_dtors+0x38>
    a264:	e0bfff17 	ldw	r2,-4(fp)
    a268:	10800017 	ldw	r2,0(r2)
    a26c:	103ee83a 	callr	r2
    a270:	e0bfff17 	ldw	r2,-4(fp)
    a274:	10bfff04 	addi	r2,r2,-4
    a278:	e0bfff15 	stw	r2,-4(fp)
    a27c:	e0ffff17 	ldw	r3,-4(fp)
    a280:	00800074 	movhi	r2,1
    a284:	10ac8a04 	addi	r2,r2,-19928
    a288:	18bff62e 	bgeu	r3,r2,a264 <_gp+0xffff6cb0>
    a28c:	0001883a 	nop
    a290:	e037883a 	mov	sp,fp
    a294:	dfc00117 	ldw	ra,4(sp)
    a298:	df000017 	ldw	fp,0(sp)
    a29c:	dec00204 	addi	sp,sp,8
    a2a0:	f800283a 	ret

0000a2a4 <alt_icache_flush_all>:
    a2a4:	deffff04 	addi	sp,sp,-4
    a2a8:	df000015 	stw	fp,0(sp)
    a2ac:	d839883a 	mov	fp,sp
    a2b0:	0001883a 	nop
    a2b4:	e037883a 	mov	sp,fp
    a2b8:	df000017 	ldw	fp,0(sp)
    a2bc:	dec00104 	addi	sp,sp,4
    a2c0:	f800283a 	ret

0000a2c4 <alt_ic_isr_register>:
    a2c4:	defff904 	addi	sp,sp,-28
    a2c8:	dfc00615 	stw	ra,24(sp)
    a2cc:	df000515 	stw	fp,20(sp)
    a2d0:	df000504 	addi	fp,sp,20
    a2d4:	e13ffc15 	stw	r4,-16(fp)
    a2d8:	e17ffd15 	stw	r5,-12(fp)
    a2dc:	e1bffe15 	stw	r6,-8(fp)
    a2e0:	e1ffff15 	stw	r7,-4(fp)
    a2e4:	e0800217 	ldw	r2,8(fp)
    a2e8:	d8800015 	stw	r2,0(sp)
    a2ec:	e1ffff17 	ldw	r7,-4(fp)
    a2f0:	e1bffe17 	ldw	r6,-8(fp)
    a2f4:	e17ffd17 	ldw	r5,-12(fp)
    a2f8:	e13ffc17 	ldw	r4,-16(fp)
    a2fc:	000a4740 	call	a474 <alt_iic_isr_register>
    a300:	e037883a 	mov	sp,fp
    a304:	dfc00117 	ldw	ra,4(sp)
    a308:	df000017 	ldw	fp,0(sp)
    a30c:	dec00204 	addi	sp,sp,8
    a310:	f800283a 	ret

0000a314 <alt_ic_irq_enable>:
    a314:	defff904 	addi	sp,sp,-28
    a318:	df000615 	stw	fp,24(sp)
    a31c:	df000604 	addi	fp,sp,24
    a320:	e13ffe15 	stw	r4,-8(fp)
    a324:	e17fff15 	stw	r5,-4(fp)
    a328:	e0bfff17 	ldw	r2,-4(fp)
    a32c:	e0bffa15 	stw	r2,-24(fp)
    a330:	0005303a 	rdctl	r2,status
    a334:	e0bffb15 	stw	r2,-20(fp)
    a338:	e0fffb17 	ldw	r3,-20(fp)
    a33c:	00bfff84 	movi	r2,-2
    a340:	1884703a 	and	r2,r3,r2
    a344:	1001703a 	wrctl	status,r2
    a348:	e0bffb17 	ldw	r2,-20(fp)
    a34c:	e0bffc15 	stw	r2,-16(fp)
    a350:	00c00044 	movi	r3,1
    a354:	e0bffa17 	ldw	r2,-24(fp)
    a358:	1884983a 	sll	r2,r3,r2
    a35c:	1007883a 	mov	r3,r2
    a360:	d0a0fd17 	ldw	r2,-31756(gp)
    a364:	1884b03a 	or	r2,r3,r2
    a368:	d0a0fd15 	stw	r2,-31756(gp)
    a36c:	d0a0fd17 	ldw	r2,-31756(gp)
    a370:	100170fa 	wrctl	ienable,r2
    a374:	e0bffc17 	ldw	r2,-16(fp)
    a378:	e0bffd15 	stw	r2,-12(fp)
    a37c:	e0bffd17 	ldw	r2,-12(fp)
    a380:	1001703a 	wrctl	status,r2
    a384:	0005883a 	mov	r2,zero
    a388:	0001883a 	nop
    a38c:	e037883a 	mov	sp,fp
    a390:	df000017 	ldw	fp,0(sp)
    a394:	dec00104 	addi	sp,sp,4
    a398:	f800283a 	ret

0000a39c <alt_ic_irq_disable>:
    a39c:	defff904 	addi	sp,sp,-28
    a3a0:	df000615 	stw	fp,24(sp)
    a3a4:	df000604 	addi	fp,sp,24
    a3a8:	e13ffe15 	stw	r4,-8(fp)
    a3ac:	e17fff15 	stw	r5,-4(fp)
    a3b0:	e0bfff17 	ldw	r2,-4(fp)
    a3b4:	e0bffa15 	stw	r2,-24(fp)
    a3b8:	0005303a 	rdctl	r2,status
    a3bc:	e0bffb15 	stw	r2,-20(fp)
    a3c0:	e0fffb17 	ldw	r3,-20(fp)
    a3c4:	00bfff84 	movi	r2,-2
    a3c8:	1884703a 	and	r2,r3,r2
    a3cc:	1001703a 	wrctl	status,r2
    a3d0:	e0bffb17 	ldw	r2,-20(fp)
    a3d4:	e0bffc15 	stw	r2,-16(fp)
    a3d8:	00c00044 	movi	r3,1
    a3dc:	e0bffa17 	ldw	r2,-24(fp)
    a3e0:	1884983a 	sll	r2,r3,r2
    a3e4:	0084303a 	nor	r2,zero,r2
    a3e8:	1007883a 	mov	r3,r2
    a3ec:	d0a0fd17 	ldw	r2,-31756(gp)
    a3f0:	1884703a 	and	r2,r3,r2
    a3f4:	d0a0fd15 	stw	r2,-31756(gp)
    a3f8:	d0a0fd17 	ldw	r2,-31756(gp)
    a3fc:	100170fa 	wrctl	ienable,r2
    a400:	e0bffc17 	ldw	r2,-16(fp)
    a404:	e0bffd15 	stw	r2,-12(fp)
    a408:	e0bffd17 	ldw	r2,-12(fp)
    a40c:	1001703a 	wrctl	status,r2
    a410:	0005883a 	mov	r2,zero
    a414:	0001883a 	nop
    a418:	e037883a 	mov	sp,fp
    a41c:	df000017 	ldw	fp,0(sp)
    a420:	dec00104 	addi	sp,sp,4
    a424:	f800283a 	ret

0000a428 <alt_ic_irq_enabled>:
    a428:	defffc04 	addi	sp,sp,-16
    a42c:	df000315 	stw	fp,12(sp)
    a430:	df000304 	addi	fp,sp,12
    a434:	e13ffe15 	stw	r4,-8(fp)
    a438:	e17fff15 	stw	r5,-4(fp)
    a43c:	000530fa 	rdctl	r2,ienable
    a440:	e0bffd15 	stw	r2,-12(fp)
    a444:	00c00044 	movi	r3,1
    a448:	e0bfff17 	ldw	r2,-4(fp)
    a44c:	1884983a 	sll	r2,r3,r2
    a450:	1007883a 	mov	r3,r2
    a454:	e0bffd17 	ldw	r2,-12(fp)
    a458:	1884703a 	and	r2,r3,r2
    a45c:	1004c03a 	cmpne	r2,r2,zero
    a460:	10803fcc 	andi	r2,r2,255
    a464:	e037883a 	mov	sp,fp
    a468:	df000017 	ldw	fp,0(sp)
    a46c:	dec00104 	addi	sp,sp,4
    a470:	f800283a 	ret

0000a474 <alt_iic_isr_register>:
    a474:	defff504 	addi	sp,sp,-44
    a478:	dfc00a15 	stw	ra,40(sp)
    a47c:	df000915 	stw	fp,36(sp)
    a480:	df000904 	addi	fp,sp,36
    a484:	e13ffc15 	stw	r4,-16(fp)
    a488:	e17ffd15 	stw	r5,-12(fp)
    a48c:	e1bffe15 	stw	r6,-8(fp)
    a490:	e1ffff15 	stw	r7,-4(fp)
    a494:	00bffa84 	movi	r2,-22
    a498:	e0bff715 	stw	r2,-36(fp)
    a49c:	e0bffd17 	ldw	r2,-12(fp)
    a4a0:	e0bff815 	stw	r2,-32(fp)
    a4a4:	e0bff817 	ldw	r2,-32(fp)
    a4a8:	10800808 	cmpgei	r2,r2,32
    a4ac:	1000271e 	bne	r2,zero,a54c <alt_iic_isr_register+0xd8>
    a4b0:	0005303a 	rdctl	r2,status
    a4b4:	e0bffb15 	stw	r2,-20(fp)
    a4b8:	e0fffb17 	ldw	r3,-20(fp)
    a4bc:	00bfff84 	movi	r2,-2
    a4c0:	1884703a 	and	r2,r3,r2
    a4c4:	1001703a 	wrctl	status,r2
    a4c8:	e0bffb17 	ldw	r2,-20(fp)
    a4cc:	e0bffa15 	stw	r2,-24(fp)
    a4d0:	00800074 	movhi	r2,1
    a4d4:	10ae6e04 	addi	r2,r2,-17992
    a4d8:	e0fff817 	ldw	r3,-32(fp)
    a4dc:	180690fa 	slli	r3,r3,3
    a4e0:	10c5883a 	add	r2,r2,r3
    a4e4:	e0fffe17 	ldw	r3,-8(fp)
    a4e8:	10c00015 	stw	r3,0(r2)
    a4ec:	00800074 	movhi	r2,1
    a4f0:	10ae6e04 	addi	r2,r2,-17992
    a4f4:	e0fff817 	ldw	r3,-32(fp)
    a4f8:	180690fa 	slli	r3,r3,3
    a4fc:	10c5883a 	add	r2,r2,r3
    a500:	10800104 	addi	r2,r2,4
    a504:	e0ffff17 	ldw	r3,-4(fp)
    a508:	10c00015 	stw	r3,0(r2)
    a50c:	e0bffe17 	ldw	r2,-8(fp)
    a510:	10000526 	beq	r2,zero,a528 <alt_iic_isr_register+0xb4>
    a514:	e0bff817 	ldw	r2,-32(fp)
    a518:	100b883a 	mov	r5,r2
    a51c:	e13ffc17 	ldw	r4,-16(fp)
    a520:	000a3140 	call	a314 <alt_ic_irq_enable>
    a524:	00000406 	br	a538 <alt_iic_isr_register+0xc4>
    a528:	e0bff817 	ldw	r2,-32(fp)
    a52c:	100b883a 	mov	r5,r2
    a530:	e13ffc17 	ldw	r4,-16(fp)
    a534:	000a39c0 	call	a39c <alt_ic_irq_disable>
    a538:	e0bff715 	stw	r2,-36(fp)
    a53c:	e0bffa17 	ldw	r2,-24(fp)
    a540:	e0bff915 	stw	r2,-28(fp)
    a544:	e0bff917 	ldw	r2,-28(fp)
    a548:	1001703a 	wrctl	status,r2
    a54c:	e0bff717 	ldw	r2,-36(fp)
    a550:	e037883a 	mov	sp,fp
    a554:	dfc00117 	ldw	ra,4(sp)
    a558:	df000017 	ldw	fp,0(sp)
    a55c:	dec00204 	addi	sp,sp,8
    a560:	f800283a 	ret

0000a564 <alt_open_fd>:
    a564:	defff804 	addi	sp,sp,-32
    a568:	dfc00715 	stw	ra,28(sp)
    a56c:	df000615 	stw	fp,24(sp)
    a570:	dc000515 	stw	r16,20(sp)
    a574:	df000604 	addi	fp,sp,24
    a578:	e13ffb15 	stw	r4,-20(fp)
    a57c:	e17ffc15 	stw	r5,-16(fp)
    a580:	e1bffd15 	stw	r6,-12(fp)
    a584:	e1fffe15 	stw	r7,-8(fp)
    a588:	e1bffe17 	ldw	r6,-8(fp)
    a58c:	e17ffd17 	ldw	r5,-12(fp)
    a590:	e13ffc17 	ldw	r4,-16(fp)
    a594:	000a7ec0 	call	a7ec <open>
    a598:	e0bffa15 	stw	r2,-24(fp)
    a59c:	e0bffa17 	ldw	r2,-24(fp)
    a5a0:	10002216 	blt	r2,zero,a62c <alt_open_fd+0xc8>
    a5a4:	04000074 	movhi	r16,1
    a5a8:	842d0d04 	addi	r16,r16,-19404
    a5ac:	e0bffa17 	ldw	r2,-24(fp)
    a5b0:	01400304 	movi	r5,12
    a5b4:	1009883a 	mov	r4,r2
    a5b8:	00091b80 	call	91b8 <__mulsi3>
    a5bc:	8085883a 	add	r2,r16,r2
    a5c0:	10c00017 	ldw	r3,0(r2)
    a5c4:	e0bffb17 	ldw	r2,-20(fp)
    a5c8:	10c00015 	stw	r3,0(r2)
    a5cc:	04000074 	movhi	r16,1
    a5d0:	842d0d04 	addi	r16,r16,-19404
    a5d4:	e0bffa17 	ldw	r2,-24(fp)
    a5d8:	01400304 	movi	r5,12
    a5dc:	1009883a 	mov	r4,r2
    a5e0:	00091b80 	call	91b8 <__mulsi3>
    a5e4:	8085883a 	add	r2,r16,r2
    a5e8:	10800104 	addi	r2,r2,4
    a5ec:	10c00017 	ldw	r3,0(r2)
    a5f0:	e0bffb17 	ldw	r2,-20(fp)
    a5f4:	10c00115 	stw	r3,4(r2)
    a5f8:	04000074 	movhi	r16,1
    a5fc:	842d0d04 	addi	r16,r16,-19404
    a600:	e0bffa17 	ldw	r2,-24(fp)
    a604:	01400304 	movi	r5,12
    a608:	1009883a 	mov	r4,r2
    a60c:	00091b80 	call	91b8 <__mulsi3>
    a610:	8085883a 	add	r2,r16,r2
    a614:	10800204 	addi	r2,r2,8
    a618:	10c00017 	ldw	r3,0(r2)
    a61c:	e0bffb17 	ldw	r2,-20(fp)
    a620:	10c00215 	stw	r3,8(r2)
    a624:	e13ffa17 	ldw	r4,-24(fp)
    a628:	000a9480 	call	a948 <alt_release_fd>
    a62c:	0001883a 	nop
    a630:	e6ffff04 	addi	sp,fp,-4
    a634:	dfc00217 	ldw	ra,8(sp)
    a638:	df000117 	ldw	fp,4(sp)
    a63c:	dc000017 	ldw	r16,0(sp)
    a640:	dec00304 	addi	sp,sp,12
    a644:	f800283a 	ret

0000a648 <alt_io_redirect>:
    a648:	defffb04 	addi	sp,sp,-20
    a64c:	dfc00415 	stw	ra,16(sp)
    a650:	df000315 	stw	fp,12(sp)
    a654:	df000304 	addi	fp,sp,12
    a658:	e13ffd15 	stw	r4,-12(fp)
    a65c:	e17ffe15 	stw	r5,-8(fp)
    a660:	e1bfff15 	stw	r6,-4(fp)
    a664:	01c07fc4 	movi	r7,511
    a668:	01800044 	movi	r6,1
    a66c:	e17ffd17 	ldw	r5,-12(fp)
    a670:	01000074 	movhi	r4,1
    a674:	212d1004 	addi	r4,r4,-19392
    a678:	000a5640 	call	a564 <alt_open_fd>
    a67c:	01c07fc4 	movi	r7,511
    a680:	000d883a 	mov	r6,zero
    a684:	e17ffe17 	ldw	r5,-8(fp)
    a688:	01000074 	movhi	r4,1
    a68c:	212d0d04 	addi	r4,r4,-19404
    a690:	000a5640 	call	a564 <alt_open_fd>
    a694:	01c07fc4 	movi	r7,511
    a698:	01800044 	movi	r6,1
    a69c:	e17fff17 	ldw	r5,-4(fp)
    a6a0:	01000074 	movhi	r4,1
    a6a4:	212d1304 	addi	r4,r4,-19380
    a6a8:	000a5640 	call	a564 <alt_open_fd>
    a6ac:	0001883a 	nop
    a6b0:	e037883a 	mov	sp,fp
    a6b4:	dfc00117 	ldw	ra,4(sp)
    a6b8:	df000017 	ldw	fp,0(sp)
    a6bc:	dec00204 	addi	sp,sp,8
    a6c0:	f800283a 	ret

0000a6c4 <alt_get_errno>:
    a6c4:	defffe04 	addi	sp,sp,-8
    a6c8:	dfc00115 	stw	ra,4(sp)
    a6cc:	df000015 	stw	fp,0(sp)
    a6d0:	d839883a 	mov	fp,sp
    a6d4:	d0a00d17 	ldw	r2,-32716(gp)
    a6d8:	10000326 	beq	r2,zero,a6e8 <alt_get_errno+0x24>
    a6dc:	d0a00d17 	ldw	r2,-32716(gp)
    a6e0:	103ee83a 	callr	r2
    a6e4:	00000106 	br	a6ec <alt_get_errno+0x28>
    a6e8:	d0a0f904 	addi	r2,gp,-31772
    a6ec:	e037883a 	mov	sp,fp
    a6f0:	dfc00117 	ldw	ra,4(sp)
    a6f4:	df000017 	ldw	fp,0(sp)
    a6f8:	dec00204 	addi	sp,sp,8
    a6fc:	f800283a 	ret

0000a700 <alt_file_locked>:
    a700:	defffb04 	addi	sp,sp,-20
    a704:	dfc00415 	stw	ra,16(sp)
    a708:	df000315 	stw	fp,12(sp)
    a70c:	dc000215 	stw	r16,8(sp)
    a710:	df000304 	addi	fp,sp,12
    a714:	e13ffe15 	stw	r4,-8(fp)
    a718:	e0bffe17 	ldw	r2,-8(fp)
    a71c:	10800217 	ldw	r2,8(r2)
    a720:	10d00034 	orhi	r3,r2,16384
    a724:	e0bffe17 	ldw	r2,-8(fp)
    a728:	10c00215 	stw	r3,8(r2)
    a72c:	e03ffd15 	stw	zero,-12(fp)
    a730:	00002306 	br	a7c0 <alt_file_locked+0xc0>
    a734:	04000074 	movhi	r16,1
    a738:	842d0d04 	addi	r16,r16,-19404
    a73c:	e0bffd17 	ldw	r2,-12(fp)
    a740:	01400304 	movi	r5,12
    a744:	1009883a 	mov	r4,r2
    a748:	00091b80 	call	91b8 <__mulsi3>
    a74c:	8085883a 	add	r2,r16,r2
    a750:	10c00017 	ldw	r3,0(r2)
    a754:	e0bffe17 	ldw	r2,-8(fp)
    a758:	10800017 	ldw	r2,0(r2)
    a75c:	1880151e 	bne	r3,r2,a7b4 <alt_file_locked+0xb4>
    a760:	04000074 	movhi	r16,1
    a764:	842d0d04 	addi	r16,r16,-19404
    a768:	e0bffd17 	ldw	r2,-12(fp)
    a76c:	01400304 	movi	r5,12
    a770:	1009883a 	mov	r4,r2
    a774:	00091b80 	call	91b8 <__mulsi3>
    a778:	8085883a 	add	r2,r16,r2
    a77c:	10800204 	addi	r2,r2,8
    a780:	10800017 	ldw	r2,0(r2)
    a784:	10000b0e 	bge	r2,zero,a7b4 <alt_file_locked+0xb4>
    a788:	01400304 	movi	r5,12
    a78c:	e13ffd17 	ldw	r4,-12(fp)
    a790:	00091b80 	call	91b8 <__mulsi3>
    a794:	1007883a 	mov	r3,r2
    a798:	00800074 	movhi	r2,1
    a79c:	10ad0d04 	addi	r2,r2,-19404
    a7a0:	1887883a 	add	r3,r3,r2
    a7a4:	e0bffe17 	ldw	r2,-8(fp)
    a7a8:	18800226 	beq	r3,r2,a7b4 <alt_file_locked+0xb4>
    a7ac:	00bffcc4 	movi	r2,-13
    a7b0:	00000806 	br	a7d4 <alt_file_locked+0xd4>
    a7b4:	e0bffd17 	ldw	r2,-12(fp)
    a7b8:	10800044 	addi	r2,r2,1
    a7bc:	e0bffd15 	stw	r2,-12(fp)
    a7c0:	d0a00c17 	ldw	r2,-32720(gp)
    a7c4:	1007883a 	mov	r3,r2
    a7c8:	e0bffd17 	ldw	r2,-12(fp)
    a7cc:	18bfd92e 	bgeu	r3,r2,a734 <_gp+0xffff7180>
    a7d0:	0005883a 	mov	r2,zero
    a7d4:	e6ffff04 	addi	sp,fp,-4
    a7d8:	dfc00217 	ldw	ra,8(sp)
    a7dc:	df000117 	ldw	fp,4(sp)
    a7e0:	dc000017 	ldw	r16,0(sp)
    a7e4:	dec00304 	addi	sp,sp,12
    a7e8:	f800283a 	ret

0000a7ec <open>:
    a7ec:	defff604 	addi	sp,sp,-40
    a7f0:	dfc00915 	stw	ra,36(sp)
    a7f4:	df000815 	stw	fp,32(sp)
    a7f8:	df000804 	addi	fp,sp,32
    a7fc:	e13ffd15 	stw	r4,-12(fp)
    a800:	e17ffe15 	stw	r5,-8(fp)
    a804:	e1bfff15 	stw	r6,-4(fp)
    a808:	00bfffc4 	movi	r2,-1
    a80c:	e0bff915 	stw	r2,-28(fp)
    a810:	00bffb44 	movi	r2,-19
    a814:	e0bffa15 	stw	r2,-24(fp)
    a818:	e03ffb15 	stw	zero,-20(fp)
    a81c:	d1600a04 	addi	r5,gp,-32728
    a820:	e13ffd17 	ldw	r4,-12(fp)
    a824:	000ab940 	call	ab94 <alt_find_dev>
    a828:	e0bff815 	stw	r2,-32(fp)
    a82c:	e0bff817 	ldw	r2,-32(fp)
    a830:	1000051e 	bne	r2,zero,a848 <open+0x5c>
    a834:	e13ffd17 	ldw	r4,-12(fp)
    a838:	000ac240 	call	ac24 <alt_find_file>
    a83c:	e0bff815 	stw	r2,-32(fp)
    a840:	00800044 	movi	r2,1
    a844:	e0bffb15 	stw	r2,-20(fp)
    a848:	e0bff817 	ldw	r2,-32(fp)
    a84c:	10002b26 	beq	r2,zero,a8fc <open+0x110>
    a850:	e13ff817 	ldw	r4,-32(fp)
    a854:	000ad2c0 	call	ad2c <alt_get_fd>
    a858:	e0bff915 	stw	r2,-28(fp)
    a85c:	e0bff917 	ldw	r2,-28(fp)
    a860:	1000030e 	bge	r2,zero,a870 <open+0x84>
    a864:	e0bff917 	ldw	r2,-28(fp)
    a868:	e0bffa15 	stw	r2,-24(fp)
    a86c:	00002506 	br	a904 <open+0x118>
    a870:	01400304 	movi	r5,12
    a874:	e13ff917 	ldw	r4,-28(fp)
    a878:	00091b80 	call	91b8 <__mulsi3>
    a87c:	1007883a 	mov	r3,r2
    a880:	00800074 	movhi	r2,1
    a884:	10ad0d04 	addi	r2,r2,-19404
    a888:	1885883a 	add	r2,r3,r2
    a88c:	e0bffc15 	stw	r2,-16(fp)
    a890:	e0fffe17 	ldw	r3,-8(fp)
    a894:	00900034 	movhi	r2,16384
    a898:	10bfffc4 	addi	r2,r2,-1
    a89c:	1886703a 	and	r3,r3,r2
    a8a0:	e0bffc17 	ldw	r2,-16(fp)
    a8a4:	10c00215 	stw	r3,8(r2)
    a8a8:	e0bffb17 	ldw	r2,-20(fp)
    a8ac:	1000051e 	bne	r2,zero,a8c4 <open+0xd8>
    a8b0:	e13ffc17 	ldw	r4,-16(fp)
    a8b4:	000a7000 	call	a700 <alt_file_locked>
    a8b8:	e0bffa15 	stw	r2,-24(fp)
    a8bc:	e0bffa17 	ldw	r2,-24(fp)
    a8c0:	10001016 	blt	r2,zero,a904 <open+0x118>
    a8c4:	e0bff817 	ldw	r2,-32(fp)
    a8c8:	10800317 	ldw	r2,12(r2)
    a8cc:	10000826 	beq	r2,zero,a8f0 <open+0x104>
    a8d0:	e0bff817 	ldw	r2,-32(fp)
    a8d4:	10800317 	ldw	r2,12(r2)
    a8d8:	e1ffff17 	ldw	r7,-4(fp)
    a8dc:	e1bffe17 	ldw	r6,-8(fp)
    a8e0:	e17ffd17 	ldw	r5,-12(fp)
    a8e4:	e13ffc17 	ldw	r4,-16(fp)
    a8e8:	103ee83a 	callr	r2
    a8ec:	00000106 	br	a8f4 <open+0x108>
    a8f0:	0005883a 	mov	r2,zero
    a8f4:	e0bffa15 	stw	r2,-24(fp)
    a8f8:	00000206 	br	a904 <open+0x118>
    a8fc:	00bffb44 	movi	r2,-19
    a900:	e0bffa15 	stw	r2,-24(fp)
    a904:	e0bffa17 	ldw	r2,-24(fp)
    a908:	1000090e 	bge	r2,zero,a930 <open+0x144>
    a90c:	e13ff917 	ldw	r4,-28(fp)
    a910:	000a9480 	call	a948 <alt_release_fd>
    a914:	000a6c40 	call	a6c4 <alt_get_errno>
    a918:	1007883a 	mov	r3,r2
    a91c:	e0bffa17 	ldw	r2,-24(fp)
    a920:	0085c83a 	sub	r2,zero,r2
    a924:	18800015 	stw	r2,0(r3)
    a928:	00bfffc4 	movi	r2,-1
    a92c:	00000106 	br	a934 <open+0x148>
    a930:	e0bff917 	ldw	r2,-28(fp)
    a934:	e037883a 	mov	sp,fp
    a938:	dfc00117 	ldw	ra,4(sp)
    a93c:	df000017 	ldw	fp,0(sp)
    a940:	dec00204 	addi	sp,sp,8
    a944:	f800283a 	ret

0000a948 <alt_release_fd>:
    a948:	defffc04 	addi	sp,sp,-16
    a94c:	dfc00315 	stw	ra,12(sp)
    a950:	df000215 	stw	fp,8(sp)
    a954:	dc000115 	stw	r16,4(sp)
    a958:	df000204 	addi	fp,sp,8
    a95c:	e13ffe15 	stw	r4,-8(fp)
    a960:	e0bffe17 	ldw	r2,-8(fp)
    a964:	108000d0 	cmplti	r2,r2,3
    a968:	1000111e 	bne	r2,zero,a9b0 <alt_release_fd+0x68>
    a96c:	04000074 	movhi	r16,1
    a970:	842d0d04 	addi	r16,r16,-19404
    a974:	e0bffe17 	ldw	r2,-8(fp)
    a978:	01400304 	movi	r5,12
    a97c:	1009883a 	mov	r4,r2
    a980:	00091b80 	call	91b8 <__mulsi3>
    a984:	8085883a 	add	r2,r16,r2
    a988:	10800204 	addi	r2,r2,8
    a98c:	10000015 	stw	zero,0(r2)
    a990:	04000074 	movhi	r16,1
    a994:	842d0d04 	addi	r16,r16,-19404
    a998:	e0bffe17 	ldw	r2,-8(fp)
    a99c:	01400304 	movi	r5,12
    a9a0:	1009883a 	mov	r4,r2
    a9a4:	00091b80 	call	91b8 <__mulsi3>
    a9a8:	8085883a 	add	r2,r16,r2
    a9ac:	10000015 	stw	zero,0(r2)
    a9b0:	0001883a 	nop
    a9b4:	e6ffff04 	addi	sp,fp,-4
    a9b8:	dfc00217 	ldw	ra,8(sp)
    a9bc:	df000117 	ldw	fp,4(sp)
    a9c0:	dc000017 	ldw	r16,0(sp)
    a9c4:	dec00304 	addi	sp,sp,12
    a9c8:	f800283a 	ret

0000a9cc <alt_alarm_stop>:
    a9cc:	defffa04 	addi	sp,sp,-24
    a9d0:	df000515 	stw	fp,20(sp)
    a9d4:	df000504 	addi	fp,sp,20
    a9d8:	e13fff15 	stw	r4,-4(fp)
    a9dc:	0005303a 	rdctl	r2,status
    a9e0:	e0bffc15 	stw	r2,-16(fp)
    a9e4:	e0fffc17 	ldw	r3,-16(fp)
    a9e8:	00bfff84 	movi	r2,-2
    a9ec:	1884703a 	and	r2,r3,r2
    a9f0:	1001703a 	wrctl	status,r2
    a9f4:	e0bffc17 	ldw	r2,-16(fp)
    a9f8:	e0bffb15 	stw	r2,-20(fp)
    a9fc:	e0bfff17 	ldw	r2,-4(fp)
    aa00:	e0bffd15 	stw	r2,-12(fp)
    aa04:	e0bffd17 	ldw	r2,-12(fp)
    aa08:	10800017 	ldw	r2,0(r2)
    aa0c:	e0fffd17 	ldw	r3,-12(fp)
    aa10:	18c00117 	ldw	r3,4(r3)
    aa14:	10c00115 	stw	r3,4(r2)
    aa18:	e0bffd17 	ldw	r2,-12(fp)
    aa1c:	10800117 	ldw	r2,4(r2)
    aa20:	e0fffd17 	ldw	r3,-12(fp)
    aa24:	18c00017 	ldw	r3,0(r3)
    aa28:	10c00015 	stw	r3,0(r2)
    aa2c:	e0bffd17 	ldw	r2,-12(fp)
    aa30:	e0fffd17 	ldw	r3,-12(fp)
    aa34:	10c00115 	stw	r3,4(r2)
    aa38:	e0bffd17 	ldw	r2,-12(fp)
    aa3c:	e0fffd17 	ldw	r3,-12(fp)
    aa40:	10c00015 	stw	r3,0(r2)
    aa44:	e0bffb17 	ldw	r2,-20(fp)
    aa48:	e0bffe15 	stw	r2,-8(fp)
    aa4c:	e0bffe17 	ldw	r2,-8(fp)
    aa50:	1001703a 	wrctl	status,r2
    aa54:	0001883a 	nop
    aa58:	e037883a 	mov	sp,fp
    aa5c:	df000017 	ldw	fp,0(sp)
    aa60:	dec00104 	addi	sp,sp,4
    aa64:	f800283a 	ret

0000aa68 <alt_tick>:
    aa68:	defffb04 	addi	sp,sp,-20
    aa6c:	dfc00415 	stw	ra,16(sp)
    aa70:	df000315 	stw	fp,12(sp)
    aa74:	df000304 	addi	fp,sp,12
    aa78:	d0a00f17 	ldw	r2,-32708(gp)
    aa7c:	e0bffd15 	stw	r2,-12(fp)
    aa80:	d0a0ff17 	ldw	r2,-31748(gp)
    aa84:	10800044 	addi	r2,r2,1
    aa88:	d0a0ff15 	stw	r2,-31748(gp)
    aa8c:	00002e06 	br	ab48 <alt_tick+0xe0>
    aa90:	e0bffd17 	ldw	r2,-12(fp)
    aa94:	10800017 	ldw	r2,0(r2)
    aa98:	e0bffe15 	stw	r2,-8(fp)
    aa9c:	e0bffd17 	ldw	r2,-12(fp)
    aaa0:	10800403 	ldbu	r2,16(r2)
    aaa4:	10803fcc 	andi	r2,r2,255
    aaa8:	10000426 	beq	r2,zero,aabc <alt_tick+0x54>
    aaac:	d0a0ff17 	ldw	r2,-31748(gp)
    aab0:	1000021e 	bne	r2,zero,aabc <alt_tick+0x54>
    aab4:	e0bffd17 	ldw	r2,-12(fp)
    aab8:	10000405 	stb	zero,16(r2)
    aabc:	e0bffd17 	ldw	r2,-12(fp)
    aac0:	10800217 	ldw	r2,8(r2)
    aac4:	d0e0ff17 	ldw	r3,-31748(gp)
    aac8:	18801d36 	bltu	r3,r2,ab40 <alt_tick+0xd8>
    aacc:	e0bffd17 	ldw	r2,-12(fp)
    aad0:	10800403 	ldbu	r2,16(r2)
    aad4:	10803fcc 	andi	r2,r2,255
    aad8:	1000191e 	bne	r2,zero,ab40 <alt_tick+0xd8>
    aadc:	e0bffd17 	ldw	r2,-12(fp)
    aae0:	10800317 	ldw	r2,12(r2)
    aae4:	e0fffd17 	ldw	r3,-12(fp)
    aae8:	18c00517 	ldw	r3,20(r3)
    aaec:	1809883a 	mov	r4,r3
    aaf0:	103ee83a 	callr	r2
    aaf4:	e0bfff15 	stw	r2,-4(fp)
    aaf8:	e0bfff17 	ldw	r2,-4(fp)
    aafc:	1000031e 	bne	r2,zero,ab0c <alt_tick+0xa4>
    ab00:	e13ffd17 	ldw	r4,-12(fp)
    ab04:	000a9cc0 	call	a9cc <alt_alarm_stop>
    ab08:	00000d06 	br	ab40 <alt_tick+0xd8>
    ab0c:	e0bffd17 	ldw	r2,-12(fp)
    ab10:	10c00217 	ldw	r3,8(r2)
    ab14:	e0bfff17 	ldw	r2,-4(fp)
    ab18:	1887883a 	add	r3,r3,r2
    ab1c:	e0bffd17 	ldw	r2,-12(fp)
    ab20:	10c00215 	stw	r3,8(r2)
    ab24:	e0bffd17 	ldw	r2,-12(fp)
    ab28:	10c00217 	ldw	r3,8(r2)
    ab2c:	d0a0ff17 	ldw	r2,-31748(gp)
    ab30:	1880032e 	bgeu	r3,r2,ab40 <alt_tick+0xd8>
    ab34:	e0bffd17 	ldw	r2,-12(fp)
    ab38:	00c00044 	movi	r3,1
    ab3c:	10c00405 	stb	r3,16(r2)
    ab40:	e0bffe17 	ldw	r2,-8(fp)
    ab44:	e0bffd15 	stw	r2,-12(fp)
    ab48:	e0fffd17 	ldw	r3,-12(fp)
    ab4c:	d0a00f04 	addi	r2,gp,-32708
    ab50:	18bfcf1e 	bne	r3,r2,aa90 <_gp+0xffff74dc>
    ab54:	0001883a 	nop
    ab58:	0001883a 	nop
    ab5c:	e037883a 	mov	sp,fp
    ab60:	dfc00117 	ldw	ra,4(sp)
    ab64:	df000017 	ldw	fp,0(sp)
    ab68:	dec00204 	addi	sp,sp,8
    ab6c:	f800283a 	ret

0000ab70 <altera_nios2_gen2_irq_init>:
    ab70:	deffff04 	addi	sp,sp,-4
    ab74:	df000015 	stw	fp,0(sp)
    ab78:	d839883a 	mov	fp,sp
    ab7c:	000170fa 	wrctl	ienable,zero
    ab80:	0001883a 	nop
    ab84:	e037883a 	mov	sp,fp
    ab88:	df000017 	ldw	fp,0(sp)
    ab8c:	dec00104 	addi	sp,sp,4
    ab90:	f800283a 	ret

0000ab94 <alt_find_dev>:
    ab94:	defffa04 	addi	sp,sp,-24
    ab98:	dfc00515 	stw	ra,20(sp)
    ab9c:	df000415 	stw	fp,16(sp)
    aba0:	df000404 	addi	fp,sp,16
    aba4:	e13ffe15 	stw	r4,-8(fp)
    aba8:	e17fff15 	stw	r5,-4(fp)
    abac:	e0bfff17 	ldw	r2,-4(fp)
    abb0:	10800017 	ldw	r2,0(r2)
    abb4:	e0bffc15 	stw	r2,-16(fp)
    abb8:	e13ffe17 	ldw	r4,-8(fp)
    abbc:	000aef00 	call	aef0 <strlen>
    abc0:	10800044 	addi	r2,r2,1
    abc4:	e0bffd15 	stw	r2,-12(fp)
    abc8:	00000d06 	br	ac00 <alt_find_dev+0x6c>
    abcc:	e0bffc17 	ldw	r2,-16(fp)
    abd0:	10800217 	ldw	r2,8(r2)
    abd4:	e0fffd17 	ldw	r3,-12(fp)
    abd8:	180d883a 	mov	r6,r3
    abdc:	e17ffe17 	ldw	r5,-8(fp)
    abe0:	1009883a 	mov	r4,r2
    abe4:	000aec00 	call	aec0 <memcmp>
    abe8:	1000021e 	bne	r2,zero,abf4 <alt_find_dev+0x60>
    abec:	e0bffc17 	ldw	r2,-16(fp)
    abf0:	00000706 	br	ac10 <alt_find_dev+0x7c>
    abf4:	e0bffc17 	ldw	r2,-16(fp)
    abf8:	10800017 	ldw	r2,0(r2)
    abfc:	e0bffc15 	stw	r2,-16(fp)
    ac00:	e0fffc17 	ldw	r3,-16(fp)
    ac04:	e0bfff17 	ldw	r2,-4(fp)
    ac08:	18bff01e 	bne	r3,r2,abcc <_gp+0xffff7618>
    ac0c:	0005883a 	mov	r2,zero
    ac10:	e037883a 	mov	sp,fp
    ac14:	dfc00117 	ldw	ra,4(sp)
    ac18:	df000017 	ldw	fp,0(sp)
    ac1c:	dec00204 	addi	sp,sp,8
    ac20:	f800283a 	ret

0000ac24 <alt_find_file>:
    ac24:	defffb04 	addi	sp,sp,-20
    ac28:	dfc00415 	stw	ra,16(sp)
    ac2c:	df000315 	stw	fp,12(sp)
    ac30:	df000304 	addi	fp,sp,12
    ac34:	e13fff15 	stw	r4,-4(fp)
    ac38:	d0a00817 	ldw	r2,-32736(gp)
    ac3c:	e0bffd15 	stw	r2,-12(fp)
    ac40:	00003106 	br	ad08 <alt_find_file+0xe4>
    ac44:	e0bffd17 	ldw	r2,-12(fp)
    ac48:	10800217 	ldw	r2,8(r2)
    ac4c:	1009883a 	mov	r4,r2
    ac50:	000aef00 	call	aef0 <strlen>
    ac54:	e0bffe15 	stw	r2,-8(fp)
    ac58:	e0bffd17 	ldw	r2,-12(fp)
    ac5c:	10c00217 	ldw	r3,8(r2)
    ac60:	e0bffe17 	ldw	r2,-8(fp)
    ac64:	10bfffc4 	addi	r2,r2,-1
    ac68:	1885883a 	add	r2,r3,r2
    ac6c:	10800003 	ldbu	r2,0(r2)
    ac70:	10803fcc 	andi	r2,r2,255
    ac74:	1080201c 	xori	r2,r2,128
    ac78:	10bfe004 	addi	r2,r2,-128
    ac7c:	10800bd8 	cmpnei	r2,r2,47
    ac80:	1000031e 	bne	r2,zero,ac90 <alt_find_file+0x6c>
    ac84:	e0bffe17 	ldw	r2,-8(fp)
    ac88:	10bfffc4 	addi	r2,r2,-1
    ac8c:	e0bffe15 	stw	r2,-8(fp)
    ac90:	e0bffe17 	ldw	r2,-8(fp)
    ac94:	e0ffff17 	ldw	r3,-4(fp)
    ac98:	1885883a 	add	r2,r3,r2
    ac9c:	10800003 	ldbu	r2,0(r2)
    aca0:	10803fcc 	andi	r2,r2,255
    aca4:	1080201c 	xori	r2,r2,128
    aca8:	10bfe004 	addi	r2,r2,-128
    acac:	10800be0 	cmpeqi	r2,r2,47
    acb0:	1000081e 	bne	r2,zero,acd4 <alt_find_file+0xb0>
    acb4:	e0bffe17 	ldw	r2,-8(fp)
    acb8:	e0ffff17 	ldw	r3,-4(fp)
    acbc:	1885883a 	add	r2,r3,r2
    acc0:	10800003 	ldbu	r2,0(r2)
    acc4:	10803fcc 	andi	r2,r2,255
    acc8:	1080201c 	xori	r2,r2,128
    accc:	10bfe004 	addi	r2,r2,-128
    acd0:	10000a1e 	bne	r2,zero,acfc <alt_find_file+0xd8>
    acd4:	e0bffd17 	ldw	r2,-12(fp)
    acd8:	10800217 	ldw	r2,8(r2)
    acdc:	e0fffe17 	ldw	r3,-8(fp)
    ace0:	180d883a 	mov	r6,r3
    ace4:	e17fff17 	ldw	r5,-4(fp)
    ace8:	1009883a 	mov	r4,r2
    acec:	000aec00 	call	aec0 <memcmp>
    acf0:	1000021e 	bne	r2,zero,acfc <alt_find_file+0xd8>
    acf4:	e0bffd17 	ldw	r2,-12(fp)
    acf8:	00000706 	br	ad18 <alt_find_file+0xf4>
    acfc:	e0bffd17 	ldw	r2,-12(fp)
    ad00:	10800017 	ldw	r2,0(r2)
    ad04:	e0bffd15 	stw	r2,-12(fp)
    ad08:	e0fffd17 	ldw	r3,-12(fp)
    ad0c:	d0a00804 	addi	r2,gp,-32736
    ad10:	18bfcc1e 	bne	r3,r2,ac44 <_gp+0xffff7690>
    ad14:	0005883a 	mov	r2,zero
    ad18:	e037883a 	mov	sp,fp
    ad1c:	dfc00117 	ldw	ra,4(sp)
    ad20:	df000017 	ldw	fp,0(sp)
    ad24:	dec00204 	addi	sp,sp,8
    ad28:	f800283a 	ret

0000ad2c <alt_get_fd>:
    ad2c:	defffa04 	addi	sp,sp,-24
    ad30:	dfc00515 	stw	ra,20(sp)
    ad34:	df000415 	stw	fp,16(sp)
    ad38:	dc000315 	stw	r16,12(sp)
    ad3c:	df000404 	addi	fp,sp,16
    ad40:	e13ffe15 	stw	r4,-8(fp)
    ad44:	00bffa04 	movi	r2,-24
    ad48:	e0bffd15 	stw	r2,-12(fp)
    ad4c:	e03ffc15 	stw	zero,-16(fp)
    ad50:	00001d06 	br	adc8 <alt_get_fd+0x9c>
    ad54:	04000074 	movhi	r16,1
    ad58:	842d0d04 	addi	r16,r16,-19404
    ad5c:	e0bffc17 	ldw	r2,-16(fp)
    ad60:	01400304 	movi	r5,12
    ad64:	1009883a 	mov	r4,r2
    ad68:	00091b80 	call	91b8 <__mulsi3>
    ad6c:	8085883a 	add	r2,r16,r2
    ad70:	10800017 	ldw	r2,0(r2)
    ad74:	1000111e 	bne	r2,zero,adbc <alt_get_fd+0x90>
    ad78:	04000074 	movhi	r16,1
    ad7c:	842d0d04 	addi	r16,r16,-19404
    ad80:	e0bffc17 	ldw	r2,-16(fp)
    ad84:	01400304 	movi	r5,12
    ad88:	1009883a 	mov	r4,r2
    ad8c:	00091b80 	call	91b8 <__mulsi3>
    ad90:	8085883a 	add	r2,r16,r2
    ad94:	e0fffe17 	ldw	r3,-8(fp)
    ad98:	10c00015 	stw	r3,0(r2)
    ad9c:	d0e00c17 	ldw	r3,-32720(gp)
    ada0:	e0bffc17 	ldw	r2,-16(fp)
    ada4:	1880020e 	bge	r3,r2,adb0 <alt_get_fd+0x84>
    ada8:	e0bffc17 	ldw	r2,-16(fp)
    adac:	d0a00c15 	stw	r2,-32720(gp)
    adb0:	e0bffc17 	ldw	r2,-16(fp)
    adb4:	e0bffd15 	stw	r2,-12(fp)
    adb8:	00000606 	br	add4 <alt_get_fd+0xa8>
    adbc:	e0bffc17 	ldw	r2,-16(fp)
    adc0:	10800044 	addi	r2,r2,1
    adc4:	e0bffc15 	stw	r2,-16(fp)
    adc8:	e0bffc17 	ldw	r2,-16(fp)
    adcc:	10800810 	cmplti	r2,r2,32
    add0:	103fe01e 	bne	r2,zero,ad54 <_gp+0xffff77a0>
    add4:	e0bffd17 	ldw	r2,-12(fp)
    add8:	e6ffff04 	addi	sp,fp,-4
    addc:	dfc00217 	ldw	ra,8(sp)
    ade0:	df000117 	ldw	fp,4(sp)
    ade4:	dc000017 	ldw	r16,0(sp)
    ade8:	dec00304 	addi	sp,sp,12
    adec:	f800283a 	ret

0000adf0 <alt_exception_cause_generated_bad_addr>:
    adf0:	defffe04 	addi	sp,sp,-8
    adf4:	df000115 	stw	fp,4(sp)
    adf8:	df000104 	addi	fp,sp,4
    adfc:	e13fff15 	stw	r4,-4(fp)
    ae00:	e0bfff17 	ldw	r2,-4(fp)
    ae04:	10bffe84 	addi	r2,r2,-6
    ae08:	10c00428 	cmpgeui	r3,r2,16
    ae0c:	18001a1e 	bne	r3,zero,ae78 <alt_exception_cause_generated_bad_addr+0x88>
    ae10:	100690ba 	slli	r3,r2,2
    ae14:	00800074 	movhi	r2,1
    ae18:	10ab8a04 	addi	r2,r2,-20952
    ae1c:	1885883a 	add	r2,r3,r2
    ae20:	10800017 	ldw	r2,0(r2)
    ae24:	1000683a 	jmp	r2
    ae28:	0000ae68 	cmpgeui	zero,zero,697
    ae2c:	0000ae68 	cmpgeui	zero,zero,697
    ae30:	0000ae78 	rdprs	zero,zero,697
    ae34:	0000ae78 	rdprs	zero,zero,697
    ae38:	0000ae78 	rdprs	zero,zero,697
    ae3c:	0000ae68 	cmpgeui	zero,zero,697
    ae40:	0000ae70 	cmpltui	zero,zero,697
    ae44:	0000ae78 	rdprs	zero,zero,697
    ae48:	0000ae68 	cmpgeui	zero,zero,697
    ae4c:	0000ae68 	cmpgeui	zero,zero,697
    ae50:	0000ae78 	rdprs	zero,zero,697
    ae54:	0000ae68 	cmpgeui	zero,zero,697
    ae58:	0000ae70 	cmpltui	zero,zero,697
    ae5c:	0000ae78 	rdprs	zero,zero,697
    ae60:	0000ae78 	rdprs	zero,zero,697
    ae64:	0000ae68 	cmpgeui	zero,zero,697
    ae68:	00800044 	movi	r2,1
    ae6c:	00000306 	br	ae7c <alt_exception_cause_generated_bad_addr+0x8c>
    ae70:	0005883a 	mov	r2,zero
    ae74:	00000106 	br	ae7c <alt_exception_cause_generated_bad_addr+0x8c>
    ae78:	0005883a 	mov	r2,zero
    ae7c:	e037883a 	mov	sp,fp
    ae80:	df000017 	ldw	fp,0(sp)
    ae84:	dec00104 	addi	sp,sp,4
    ae88:	f800283a 	ret

0000ae8c <atexit>:
    ae8c:	200b883a 	mov	r5,r4
    ae90:	000f883a 	mov	r7,zero
    ae94:	000d883a 	mov	r6,zero
    ae98:	0009883a 	mov	r4,zero
    ae9c:	000af0c1 	jmpi	af0c <__register_exitproc>

0000aea0 <exit>:
    aea0:	defffe04 	addi	sp,sp,-8
    aea4:	000b883a 	mov	r5,zero
    aea8:	dc000015 	stw	r16,0(sp)
    aeac:	dfc00115 	stw	ra,4(sp)
    aeb0:	2021883a 	mov	r16,r4
    aeb4:	000b0640 	call	b064 <__call_exitprocs>
    aeb8:	8009883a 	mov	r4,r16
    aebc:	000b1f40 	call	b1f4 <_exit>

0000aec0 <memcmp>:
    aec0:	218d883a 	add	r6,r4,r6
    aec4:	21800826 	beq	r4,r6,aee8 <memcmp+0x28>
    aec8:	20800003 	ldbu	r2,0(r4)
    aecc:	28c00003 	ldbu	r3,0(r5)
    aed0:	10c00226 	beq	r2,r3,aedc <memcmp+0x1c>
    aed4:	10c5c83a 	sub	r2,r2,r3
    aed8:	f800283a 	ret
    aedc:	21000044 	addi	r4,r4,1
    aee0:	29400044 	addi	r5,r5,1
    aee4:	003ff706 	br	aec4 <_gp+0xffff7910>
    aee8:	0005883a 	mov	r2,zero
    aeec:	f800283a 	ret

0000aef0 <strlen>:
    aef0:	2005883a 	mov	r2,r4
    aef4:	10c00007 	ldb	r3,0(r2)
    aef8:	18000226 	beq	r3,zero,af04 <strlen+0x14>
    aefc:	10800044 	addi	r2,r2,1
    af00:	003ffc06 	br	aef4 <_gp+0xffff7940>
    af04:	1105c83a 	sub	r2,r2,r4
    af08:	f800283a 	ret

0000af0c <__register_exitproc>:
    af0c:	00800074 	movhi	r2,1
    af10:	10ad7204 	addi	r2,r2,-19000
    af14:	10c00017 	ldw	r3,0(r2)
    af18:	defff904 	addi	sp,sp,-28
    af1c:	dc000015 	stw	r16,0(sp)
    af20:	1c000c17 	ldw	r16,48(r3)
    af24:	dd400515 	stw	r21,20(sp)
    af28:	dd000415 	stw	r20,16(sp)
    af2c:	dcc00315 	stw	r19,12(sp)
    af30:	dc800215 	stw	r18,8(sp)
    af34:	dc400115 	stw	r17,4(sp)
    af38:	dfc00615 	stw	ra,24(sp)
    af3c:	202b883a 	mov	r21,r4
    af40:	2823883a 	mov	r17,r5
    af44:	3027883a 	mov	r19,r6
    af48:	3825883a 	mov	r18,r7
    af4c:	1029883a 	mov	r20,r2
    af50:	8000021e 	bne	r16,zero,af5c <__register_exitproc+0x50>
    af54:	1c000d04 	addi	r16,r3,52
    af58:	1c000c15 	stw	r16,48(r3)
    af5c:	80800117 	ldw	r2,4(r16)
    af60:	00c007c4 	movi	r3,31
    af64:	1880110e 	bge	r3,r2,afac <__register_exitproc+0xa0>
    af68:	00800074 	movhi	r2,1
    af6c:	10a47804 	addi	r2,r2,-28192
    af70:	1000021e 	bne	r2,zero,af7c <__register_exitproc+0x70>
    af74:	00bfffc4 	movi	r2,-1
    af78:	00003106 	br	b040 <__register_exitproc+0x134>
    af7c:	01002304 	movi	r4,140
    af80:	00091e00 	call	91e0 <malloc>
    af84:	1021883a 	mov	r16,r2
    af88:	103ffa26 	beq	r2,zero,af74 <_gp+0xffff79c0>
    af8c:	10000115 	stw	zero,4(r2)
    af90:	a0800017 	ldw	r2,0(r20)
    af94:	10c00c17 	ldw	r3,48(r2)
    af98:	80c00015 	stw	r3,0(r16)
    af9c:	14000c15 	stw	r16,48(r2)
    afa0:	80002215 	stw	zero,136(r16)
    afa4:	a8001d26 	beq	r21,zero,b01c <__register_exitproc+0x110>
    afa8:	00000606 	br	afc4 <__register_exitproc+0xb8>
    afac:	a8001b26 	beq	r21,zero,b01c <__register_exitproc+0x110>
    afb0:	80802217 	ldw	r2,136(r16)
    afb4:	1000091e 	bne	r2,zero,afdc <__register_exitproc+0xd0>
    afb8:	00800074 	movhi	r2,1
    afbc:	10a47804 	addi	r2,r2,-28192
    afc0:	103fec26 	beq	r2,zero,af74 <_gp+0xffff79c0>
    afc4:	01004204 	movi	r4,264
    afc8:	00091e00 	call	91e0 <malloc>
    afcc:	103fe926 	beq	r2,zero,af74 <_gp+0xffff79c0>
    afd0:	10004015 	stw	zero,256(r2)
    afd4:	10004115 	stw	zero,260(r2)
    afd8:	80802215 	stw	r2,136(r16)
    afdc:	81400117 	ldw	r5,4(r16)
    afe0:	01000044 	movi	r4,1
    afe4:	2947883a 	add	r3,r5,r5
    afe8:	18c7883a 	add	r3,r3,r3
    afec:	10c7883a 	add	r3,r2,r3
    aff0:	1cc00015 	stw	r19,0(r3)
    aff4:	2148983a 	sll	r4,r4,r5
    aff8:	11404017 	ldw	r5,256(r2)
    affc:	290ab03a 	or	r5,r5,r4
    b000:	11404015 	stw	r5,256(r2)
    b004:	1c802015 	stw	r18,128(r3)
    b008:	00c00084 	movi	r3,2
    b00c:	a8c0031e 	bne	r21,r3,b01c <__register_exitproc+0x110>
    b010:	10c04117 	ldw	r3,260(r2)
    b014:	1908b03a 	or	r4,r3,r4
    b018:	11004115 	stw	r4,260(r2)
    b01c:	80800117 	ldw	r2,4(r16)
    b020:	10c00044 	addi	r3,r2,1
    b024:	10800084 	addi	r2,r2,2
    b028:	1085883a 	add	r2,r2,r2
    b02c:	1085883a 	add	r2,r2,r2
    b030:	80c00115 	stw	r3,4(r16)
    b034:	80a1883a 	add	r16,r16,r2
    b038:	84400015 	stw	r17,0(r16)
    b03c:	0005883a 	mov	r2,zero
    b040:	dfc00617 	ldw	ra,24(sp)
    b044:	dd400517 	ldw	r21,20(sp)
    b048:	dd000417 	ldw	r20,16(sp)
    b04c:	dcc00317 	ldw	r19,12(sp)
    b050:	dc800217 	ldw	r18,8(sp)
    b054:	dc400117 	ldw	r17,4(sp)
    b058:	dc000017 	ldw	r16,0(sp)
    b05c:	dec00704 	addi	sp,sp,28
    b060:	f800283a 	ret

0000b064 <__call_exitprocs>:
    b064:	defff504 	addi	sp,sp,-44
    b068:	dd000515 	stw	r20,20(sp)
    b06c:	05000074 	movhi	r20,1
    b070:	dc800315 	stw	r18,12(sp)
    b074:	dfc00a15 	stw	ra,40(sp)
    b078:	df000915 	stw	fp,36(sp)
    b07c:	ddc00815 	stw	r23,32(sp)
    b080:	dd800715 	stw	r22,28(sp)
    b084:	dd400615 	stw	r21,24(sp)
    b088:	dcc00415 	stw	r19,16(sp)
    b08c:	dc400215 	stw	r17,8(sp)
    b090:	dc000115 	stw	r16,4(sp)
    b094:	d9000015 	stw	r4,0(sp)
    b098:	2825883a 	mov	r18,r5
    b09c:	a52d7204 	addi	r20,r20,-19000
    b0a0:	a4400017 	ldw	r17,0(r20)
    b0a4:	8cc00c17 	ldw	r19,48(r17)
    b0a8:	8c400c04 	addi	r17,r17,48
    b0ac:	98004526 	beq	r19,zero,b1c4 <__call_exitprocs+0x160>
    b0b0:	9c000117 	ldw	r16,4(r19)
    b0b4:	00900034 	movhi	r2,16384
    b0b8:	10bfffc4 	addi	r2,r2,-1
    b0bc:	9d402217 	ldw	r21,136(r19)
    b0c0:	85bfffc4 	addi	r22,r16,-1
    b0c4:	80a1883a 	add	r16,r16,r2
    b0c8:	8421883a 	add	r16,r16,r16
    b0cc:	8421883a 	add	r16,r16,r16
    b0d0:	ac2f883a 	add	r23,r21,r16
    b0d4:	84000204 	addi	r16,r16,8
    b0d8:	9c21883a 	add	r16,r19,r16
    b0dc:	b0002716 	blt	r22,zero,b17c <__call_exitprocs+0x118>
    b0e0:	90000726 	beq	r18,zero,b100 <__call_exitprocs+0x9c>
    b0e4:	a800041e 	bne	r21,zero,b0f8 <__call_exitprocs+0x94>
    b0e8:	b5bfffc4 	addi	r22,r22,-1
    b0ec:	bdffff04 	addi	r23,r23,-4
    b0f0:	843fff04 	addi	r16,r16,-4
    b0f4:	003ff906 	br	b0dc <_gp+0xffff7b28>
    b0f8:	b9002017 	ldw	r4,128(r23)
    b0fc:	913ffa1e 	bne	r18,r4,b0e8 <_gp+0xffff7b34>
    b100:	99000117 	ldw	r4,4(r19)
    b104:	82000017 	ldw	r8,0(r16)
    b108:	213fffc4 	addi	r4,r4,-1
    b10c:	b100021e 	bne	r22,r4,b118 <__call_exitprocs+0xb4>
    b110:	9d800115 	stw	r22,4(r19)
    b114:	00000106 	br	b11c <__call_exitprocs+0xb8>
    b118:	80000015 	stw	zero,0(r16)
    b11c:	403ff226 	beq	r8,zero,b0e8 <_gp+0xffff7b34>
    b120:	9f000117 	ldw	fp,4(r19)
    b124:	a8000526 	beq	r21,zero,b13c <__call_exitprocs+0xd8>
    b128:	00800044 	movi	r2,1
    b12c:	1592983a 	sll	r9,r2,r22
    b130:	a9404017 	ldw	r5,256(r21)
    b134:	494a703a 	and	r5,r9,r5
    b138:	2800021e 	bne	r5,zero,b144 <__call_exitprocs+0xe0>
    b13c:	403ee83a 	callr	r8
    b140:	00000906 	br	b168 <__call_exitprocs+0x104>
    b144:	a9004117 	ldw	r4,260(r21)
    b148:	4908703a 	and	r4,r9,r4
    b14c:	2000041e 	bne	r4,zero,b160 <__call_exitprocs+0xfc>
    b150:	b9400017 	ldw	r5,0(r23)
    b154:	d9000017 	ldw	r4,0(sp)
    b158:	403ee83a 	callr	r8
    b15c:	00000206 	br	b168 <__call_exitprocs+0x104>
    b160:	b9000017 	ldw	r4,0(r23)
    b164:	403ee83a 	callr	r8
    b168:	99000117 	ldw	r4,4(r19)
    b16c:	e13fcc1e 	bne	fp,r4,b0a0 <_gp+0xffff7aec>
    b170:	89000017 	ldw	r4,0(r17)
    b174:	993fdc26 	beq	r19,r4,b0e8 <_gp+0xffff7b34>
    b178:	003fc906 	br	b0a0 <_gp+0xffff7aec>
    b17c:	00800074 	movhi	r2,1
    b180:	10a47d04 	addi	r2,r2,-28172
    b184:	10000f26 	beq	r2,zero,b1c4 <__call_exitprocs+0x160>
    b188:	99400117 	ldw	r5,4(r19)
    b18c:	99000017 	ldw	r4,0(r19)
    b190:	2800091e 	bne	r5,zero,b1b8 <__call_exitprocs+0x154>
    b194:	20000826 	beq	r4,zero,b1b8 <__call_exitprocs+0x154>
    b198:	89000015 	stw	r4,0(r17)
    b19c:	a8000226 	beq	r21,zero,b1a8 <__call_exitprocs+0x144>
    b1a0:	a809883a 	mov	r4,r21
    b1a4:	00091f40 	call	91f4 <free>
    b1a8:	9809883a 	mov	r4,r19
    b1ac:	00091f40 	call	91f4 <free>
    b1b0:	8cc00017 	ldw	r19,0(r17)
    b1b4:	003fbd06 	br	b0ac <_gp+0xffff7af8>
    b1b8:	9823883a 	mov	r17,r19
    b1bc:	2027883a 	mov	r19,r4
    b1c0:	003fba06 	br	b0ac <_gp+0xffff7af8>
    b1c4:	dfc00a17 	ldw	ra,40(sp)
    b1c8:	df000917 	ldw	fp,36(sp)
    b1cc:	ddc00817 	ldw	r23,32(sp)
    b1d0:	dd800717 	ldw	r22,28(sp)
    b1d4:	dd400617 	ldw	r21,24(sp)
    b1d8:	dd000517 	ldw	r20,20(sp)
    b1dc:	dcc00417 	ldw	r19,16(sp)
    b1e0:	dc800317 	ldw	r18,12(sp)
    b1e4:	dc400217 	ldw	r17,8(sp)
    b1e8:	dc000117 	ldw	r16,4(sp)
    b1ec:	dec00b04 	addi	sp,sp,44
    b1f0:	f800283a 	ret

0000b1f4 <_exit>:
    b1f4:	defffd04 	addi	sp,sp,-12
    b1f8:	df000215 	stw	fp,8(sp)
    b1fc:	df000204 	addi	fp,sp,8
    b200:	e13fff15 	stw	r4,-4(fp)
    b204:	0001883a 	nop
    b208:	e0bfff17 	ldw	r2,-4(fp)
    b20c:	e0bffe15 	stw	r2,-8(fp)
    b210:	e0bffe17 	ldw	r2,-8(fp)
    b214:	10000226 	beq	r2,zero,b220 <_exit+0x2c>
    b218:	002af070 	cmpltui	zero,zero,43969
    b21c:	00000106 	br	b224 <_exit+0x30>
    b220:	002af0b0 	cmpltui	zero,zero,43970
    b224:	003fff06 	br	b224 <_gp+0xffff7c70>
